Certificate:
    Data:
        Version: 3 (0x2)
        Serial Number: 6 (0x6)
        Signature Algorithm: sha256WithRSAEncryption
        Issuer: C=CH, ST=VD, L=Lausanne, O=IMovies, OU=CA, CN=imovies/emailAddress=admin@imovies.ch
        Validity
            Not Before: Nov 24 11:08:12 2021 GMT
            Not After : Nov 24 11:08:12 2022 GMT
        Subject: C=CH, ST=VD, O=IMovies, OU=Intermediate, CN=caserver.imovies/emailAddress=admin@imovies.ch
        Subject Public Key Info:
            Public Key Algorithm: rsaEncryption
                RSA Public-Key: (2050 bit)
                Modulus:
                    02:28:dd:c4:e5:d4:d6:34:33:4d:68:16:b9:66:94:
                    b4:85:b8:ba:58:77:ef:9e:2c:ff:23:08:53:6a:de:
                    37:8e:05:bf:f8:76:c2:ef:d6:c3:6a:e1:d6:89:75:
                    cd:42:a2:d9:98:41:8e:66:43:e7:b8:90:36:73:90:
                    89:49:07:02:2d:1a:78:9d:75:2f:62:5a:cb:96:51:
                    50:11:31:05:6c:ba:b6:7b:fd:52:3a:58:cf:ae:44:
                    c4:05:7f:44:ad:76:99:d4:ed:13:28:16:45:e6:c4:
                    e1:1b:9c:d3:52:89:43:f0:63:f5:a5:2d:70:23:28:
                    72:74:46:c5:f9:1c:bb:17:c1:4b:6a:13:2f:0e:e0:
                    13:f7:bc:50:31:7a:4b:9c:15:fa:d3:a9:88:28:58:
                    76:0e:ad:2b:b7:f6:9d:ee:7b:b6:69:20:b9:60:b7:
                    83:30:64:4b:23:d0:5e:e7:f3:50:ca:98:cd:f0:f8:
                    f3:43:97:0f:b3:d1:4c:30:4c:5b:79:8b:95:3e:f4:
                    08:d4:97:eb:0d:70:72:a3:36:7f:5b:22:3f:f6:6a:
                    d5:09:a7:da:1c:1d:98:25:ff:3d:4d:0b:74:33:9a:
                    67:8f:c3:f5:af:ee:6d:9f:c7:11:1d:ec:c3:2e:80:
                    99:52:c4:56:dd:84:c3:d1:48:ab:f3:7b:dd:00:46:
                    e1:3d
                Exponent:
                    00:cc:c2:a0:82:5c:fb:29:53:10:30:53:a3:16:dc:
                    d9:02:e8:82:ed:17:f7:04:6f:12:f4:b0:12:ed:bb:
                    13:d7:1c:1c:ca:e2:6d:43:43:0d:7e:fa:d9:a3:45:
                    b3:9a:b2:af:ef:c7:bb:07:2c:10:51:c4:fd:54:fd:
                    58:93:2f:94:6f:10:1d:43:fa:78:3d:21:2d:84:2f:
                    65:b5:d7:9f:7d:c6:39:f8:7f:f9:52:24:f9:f9:8a:
                    34:a5:68:d1:58:3e:eb:e8:68:34:7e:c0:67:ac:40:
                    18:fa:3a:85:d1:6c:cd:7f:eb:1f:b6:91:c3:11:1f:
                    a0:a2:77:16:fd:85:f5:c2:d2:82:2f:53:d8:51:e4:
                    28:57:c2:bf:3c:2e:f2:da:cf:28:b2:08:4d:65:ed:
                    a7:ad:0a:4b:ba:84:46:43:b4:f1:bb:20:fa:f2:31:
                    82:86:fb:f1:fc:f1:e1:ca:2a:46:c2:a9:3f:f1:a5:
                    e3:c2:3e:71:f1:47:42:1c:5a:4f:d5:87:84:45:87:
                    7f:8a:86:c3:17:6f:62:0a:92:43:07:68:cc:39:32:
                    48:9e:ee:1c:64:3e:c9:13:e8:fa:00:1c:74:62:c5:
                    a4:ae:d5:9c:ad:f6:49:34:ed:56:82:1c:8b:f3:5b:
                    6c:49:57:c0:a1:c7:10:40:ac:0c:95:80:88:4b:a1:
                    ff:87
        X509v3 extensions:
            X509v3 Subject Key Identifier: 
                D0:48:32:6D:BA:61:89:94:8F:CE:1C:3C:C6:E8:9C:7E:01:D4:7C:1C
            X509v3 Authority Key Identifier: 
                keyid:1A:0A:9A:F2:60:8C:4E:11:82:23:CE:9A:D8:5E:2B:C9:58:34:79:4E

            X509v3 Basic Constraints: critical
                CA:TRUE, pathlen:0
            X509v3 Key Usage: critical
                Digital Signature, Certificate Sign, CRL Sign
    Signature Algorithm: sha256WithRSAEncryption
         1e:03:01:4f:fd:d2:9f:9b:43:4c:7d:6d:62:66:9a:0d:e9:e8:
         be:eb:d3:98:f2:db:5f:bb:0b:31:16:1e:d2:7c:25:9d:b2:8a:
         b6:72:03:b7:a1:6b:2e:e2:4f:7d:94:14:54:f2:8f:38:0c:d2:
         0b:d4:a0:5d:a5:c1:87:45:2a:ab:55:02:ab:6c:2a:68:1a:69:
         a4:11:11:bf:98:bd:42:0c:57:d9:c7:2f:a4:f0:2a:fc:c9:23:
         a0:28:df:06:57:5e:17:fc:35:98:ef:77:aa:6b:24:bb:d2:39:
         b3:06:e7:64:fe:08:7d:66:79:6f:a1:02:66:1b:8f:be:e7:65:
         d2:04:a1:51:02:39:73:8c:6e:36:58:2b:72:ae:3e:2f:24:59:
         1f:d5:7e:de:32:bf:16:57:3b:15:94:d9:eb:15:2b:e7:d6:4f:
         0c:b1:5b:ba:db:d4:2d:ca:fc:b4:24:86:53:7d:d8:c3:00:c7:
         53:72:18:1d:6c:ac:9c:d9:20:28:04:46:8d:fc:01:a7:8d:89:
         b2:6e:36:43:2b:36:26:b5:23:96:a5:d2:47:c7:ae:33:f2:d4:
         00:31:59:ca:39:86:dd:66:88:37:69:11:eb:b1:c6:0a:c4:b3:
         49:62:dd:35:49:51:af:1a:f5:0a:78:b8:8c:3b:56:ae:4c:c5:
         b2:e2:cb:9a
-----BEGIN CERTIFICATE-----
MIIE3zCCA8egAwIBAgIBBjANBgkqhkiG9w0BAQsFADB/MQswCQYDVQQGEwJDSDEL
MAkGA1UECAwCVkQxETAPBgNVBAcMCExhdXNhbm5lMRAwDgYDVQQKDAdJTW92aWVz
MQswCQYDVQQLDAJDQTEQMA4GA1UEAwwHaW1vdmllczEfMB0GCSqGSIb3DQEJARYQ
YWRtaW5AaW1vdmllcy5jaDAeFw0yMTExMjQxMTA4MTJaFw0yMjExMjQxMTA4MTJa
MH8xCzAJBgNVBAYTAkNIMQswCQYDVQQIDAJWRDEQMA4GA1UECgwHSU1vdmllczEV
MBMGA1UECwwMSW50ZXJtZWRpYXRlMRkwFwYDVQQDDBBjYXNlcnZlci5pbW92aWVz
MR8wHQYJKoZIhvcNAQkBFhBhZG1pbkBpbW92aWVzLmNoMIICIjANBgkqhkiG9w0B
AQEFAAOCAg8AMIICCgKCAQECKN3E5dTWNDNNaBa5ZpS0hbi6WHfvniz/IwhTat43
jgW/+HbC79bDauHWiXXNQqLZmEGOZkPnuJA2c5CJSQcCLRp4nXUvYlrLllFQETEF
bLq2e/1SOljPrkTEBX9ErXaZ1O0TKBZF5sThG5zTUolD8GP1pS1wIyhydEbF+Ry7
F8FLahMvDuAT97xQMXpLnBX606mIKFh2Dq0rt/ad7nu2aSC5YLeDMGRLI9Be5/NQ
ypjN8PjzQ5cPs9FMMExbeYuVPvQI1JfrDXByozZ/WyI/9mrVCafaHB2YJf89TQt0
M5pnj8P1r+5tn8cRHezDLoCZUsRW3YTD0Uir83vdAEbhPQKCAQEAzMKgglz7KVMQ
MFOjFtzZAuiC7Rf3BG8S9LAS7bsT1xwcyuJtQ0MNfvrZo0WzmrKv78e7BywQUcT9
VP1Yky+UbxAdQ/p4PSEthC9ltdeffcY5+H/5UiT5+Yo0pWjRWD7r6Gg0fsBnrEAY
+jqF0WzNf+sftpHDER+goncW/YX1wtKCL1PYUeQoV8K/PC7y2s8osghNZe2nrQpL
uoRGQ7TxuyD68jGChvvx/PHhyipGwqk/8aXjwj5x8UdCHFpP1YeERYd/iobDF29i
CpJDB2jMOTJInu4cZD7JE+j6ABx0YsWkrtWcrfZJNO1WghyL81tsSVfAoccQQKwM
lYCIS6H/h6NmMGQwHQYDVR0OBBYEFNBIMm26YYmUj84cPMbonH4B1HwcMB8GA1Ud
IwQYMBaAFBoKmvJgjE4RgiPOmtheK8lYNHlOMBIGA1UdEwEB/wQIMAYBAf8CAQAw
DgYDVR0PAQH/BAQDAgGGMA0GCSqGSIb3DQEBCwUAA4IBAQAeAwFP/dKfm0NMfW1i
ZpoN6ei+69OY8ttfuwsxFh7SfCWdsoq2cgO3oWsu4k99lBRU8o84DNIL1KBdpcGH
RSqrVQKrbCpoGmmkERG/mL1CDFfZxy+k8Cr8ySOgKN8GV14X/DWY73eqayS70jmz
Budk/gh9ZnlvoQJmG4++52XSBKFRAjlzjG42WCtyrj4vJFkf1X7eMr8WVzsVlNnr
FSvn1k8MsVu629Qtyvy0JIZTfdjDAMdTchgdbKyc2SAoBEaN/AGnjYmybjZDKzYm
tSOWpdJHx64z8tQAMVnKOYbdZog3aRHrscYKxLNJYt01SVGvGvUKeLiMO1auTMWy
4sua
-----END CERTIFICATE-----
-----BEGIN CERTIFICATE-----
MIIEHTCCAwWgAwIBAgIUL5rIsEhPgJpVy6r3ntshzBuhguowDQYJKoZIhvcNAQEL
BQAwfzELMAkGA1UEBhMCQ0gxCzAJBgNVBAgMAlZEMREwDwYDVQQHDAhMYXVzYW5u
ZTEQMA4GA1UECgwHSU1vdmllczELMAkGA1UECwwCQ0ExEDAOBgNVBAMMB2ltb3Zp
ZXMxHzAdBgkqhkiG9w0BCQEWEGFkbWluQGltb3ZpZXMuY2gwHhcNMjExMTI0MTEw
ODA2WhcNMjIxMTI0MTEwODA2WjB/MQswCQYDVQQGEwJDSDELMAkGA1UECAwCVkQx
ETAPBgNVBAcMCExhdXNhbm5lMRAwDgYDVQQKDAdJTW92aWVzMQswCQYDVQQLDAJD
QTEQMA4GA1UEAwwHaW1vdmllczEfMB0GCSqGSIb3DQEJARYQYWRtaW5AaW1vdmll
cy5jaDCCASIwDQYJKoZIhvcNAQEBBQADggEPADCCAQoCggEBAMaHaBGisz7JjC/b
PRO4r8hAqacYUDNPjvEHWKSR7RSH8ydKvmzI+9HS3qUAkrW8mjh+lP+rSEi2mpeb
gTF53al4uzDJdgFQJcqJaFslFdERZVkRALJAZl1d/XwmgxFV7siEe2025RTDA0bT
Sf95l0nGPnHIZvmVUzB6rGNJSB32lvSQwV+hA492Np8EJozQkj0eTN2wanFIp1Z7
elmbuVMVHYEbmRm0oCbdnPo6+JVLBWgk6Pswd+sJ6Ybb4/3i1dAC44qzpDqsnNJR
wHd+OqOMgykEUvWQ0pRUVJkflDWK6dtbW/kkxl4g+5jUP0oorVT97hOncZtRJxuo
13CVUzECAwEAAaOBkDCBjTAdBgNVHQ4EFgQUGgqa8mCMThGCI86a2F4ryVg0eU4w
KgYDVR0RBCMwIYIHaW1vdmllc4ILd2ViLmltb3ZpZXOCCSouaW1vdmllczAfBgNV
HSMEGDAWgBQaCpryYIxOEYIjzprYXivJWDR5TjAPBgNVHRMBAf8EBTADAQH/MA4G
A1UdDwEB/wQEAwIBhjANBgkqhkiG9w0BAQsFAAOCAQEAcdDzIFqKSURT0MJzMML3
83Fux138qGy2otquniGFvGAjxQglyCI4Cr4aAOrgTpAd2QOdok2QU6TeUohejUJr
G4+boN0brYMbtWYhU9xEFTpBcV1b1Jjr9Nskbfb6joHw2GhW3vj/wzHdATaMdj4L
ZRvJE8MUK3GM11IeKe6pXlFVOpfPrO4syoFGQWvDMsqKK7jJZz6xA7VRl31EZusS
cwb/bGksSFUx/srXs9k3fKzevy2O5rw72yyOXEXPdXCl2PW1Q1nlKwEx52v0EirH
P2m8A5CVKpsifcx05YCSO5Bt9mQyQPxthwN00f0x+csuiGtnzIr5YqeVUcJxJcH9
8Q==
-----END CERTIFICATE-----
