Certificate:
    Data:
        Version: 3 (0x2)
        Serial Number: 6 (0x6)
        Signature Algorithm: sha256WithRSAEncryption
        Issuer: C=CH, ST=VD, L=Lausanne, O=IMovies, OU=CA, CN=imovies/emailAddress=admin@imovies.ch
        Validity
            Not Before: Nov 24 15:50:49 2021 GMT
            Not After : Nov 24 15:50:49 2022 GMT
        Subject: C=CH, ST=VD, O=IMovies, OU=Intermediate, CN=caserver.imovies/emailAddress=admin@imovies.ch
        Subject Public Key Info:
            Public Key Algorithm: rsaEncryption
                RSA Public-Key: (2048 bit)
                Modulus:
                    00:ce:17:27:56:aa:59:65:6b:77:25:de:d9:ae:f2:
                    8b:26:c4:aa:c5:7d:55:6b:a1:c0:f2:a3:e6:cb:22:
                    ae:49:2b:4c:0e:51:a5:7a:1e:8d:da:79:ae:3c:c9:
                    f1:5e:ee:d3:ef:6b:60:db:01:9c:8a:16:f6:8f:0d:
                    76:90:4a:de:5f:ed:00:89:d7:cc:f9:42:71:d6:dc:
                    89:f0:14:e7:45:3d:0d:5b:5a:6e:bf:9e:e8:0f:85:
                    05:32:c3:d9:18:d0:d9:1f:1e:0b:6d:c0:36:06:4c:
                    88:04:a8:39:73:32:2c:a8:51:74:2b:e3:01:49:00:
                    88:67:93:c3:e8:81:8b:7a:47:40:61:38:00:c6:bc:
                    32:88:f8:cc:e5:06:74:f8:ff:f7:1e:43:c6:e9:c5:
                    61:7a:32:a6:51:ab:86:48:ab:60:07:ae:c1:3c:69:
                    ad:ce:93:f5:ac:ca:e0:b0:52:9d:d3:47:2e:08:55:
                    ea:8c:b2:c2:4f:1a:17:ac:5c:4e:53:6d:a6:7f:6c:
                    88:6d:de:2c:98:09:22:4d:bf:0a:40:0e:8f:04:2b:
                    8d:89:9a:f8:e3:38:67:1c:fa:19:d3:c6:9f:b4:f5:
                    51:c5:83:42:2b:2a:b9:ce:5e:5b:ec:e8:25:c1:4c:
                    f5:e3:07:1c:c6:a2:e6:45:e5:7d:74:76:43:08:65:
                    96:85
                Exponent: 65537 (0x10001)
        X509v3 extensions:
            X509v3 Subject Key Identifier: 
                C8:94:63:B2:06:5D:F9:F1:D2:94:F7:D5:43:3C:3F:4B:10:E2:F2:13
            X509v3 Authority Key Identifier: 
                keyid:43:96:33:70:8B:32:6E:4A:86:FD:B6:69:0A:47:3A:15:4A:B0:6B:77

            X509v3 Basic Constraints: critical
                CA:TRUE, pathlen:0
            X509v3 Key Usage: critical
                Digital Signature, Certificate Sign, CRL Sign
    Signature Algorithm: sha256WithRSAEncryption
         ad:5b:4b:b7:b1:f0:c0:4d:a7:13:b3:51:06:a7:cb:36:92:0c:
         1e:59:7a:f0:72:1d:54:61:27:33:08:d5:64:80:a3:01:ab:29:
         e4:36:a2:ce:a2:2b:f9:53:c2:ef:2c:1e:25:4a:29:2f:97:98:
         36:8a:46:c0:0f:89:55:d6:49:e9:cb:3a:28:aa:16:d6:cf:9f:
         e2:3d:27:c5:00:bb:62:f9:07:f1:92:e8:d7:1d:95:8f:d6:8a:
         cf:a5:84:7b:30:e4:a0:b7:b3:a1:c3:e7:7d:7a:7d:b7:44:e7:
         fb:46:6b:41:a4:76:d0:17:b7:06:3e:1d:91:77:bb:f1:d0:f3:
         6e:6b:d3:55:ad:9b:db:06:fd:a9:5f:8c:d5:74:ef:b4:7a:88:
         36:0a:33:8d:aa:04:6e:1a:3b:83:e9:60:ec:ec:32:f0:4e:54:
         fa:92:89:2e:f5:96:b8:ea:67:31:df:2b:59:6e:f9:d4:73:f3:
         06:e9:6e:31:7b:5d:20:ec:f8:90:c6:bb:20:e7:05:98:91:9c:
         2f:7f:2a:c2:1d:75:f9:20:89:c6:0e:1c:14:fb:9c:f3:4e:35:
         3a:a9:d0:27:a5:b6:c0:02:3d:e8:08:8a:7b:88:80:4b:2f:c1:
         18:c3:2d:98:2f:a3:36:bf:df:db:4f:02:f1:7b:b2:0b:33:12:
         83:da:9c:c5
MINCHIA ZIOOO
-----BEGIN CERTIFICATE-----
MIID3zCCAsegAwIBAgIBBjANBgkqhkiG9w0BAQsFADB/MQswCQYDVQQGEwJDSDEL
MAkGA1UECAwCVkQxETAPBgNVBAcMCExhdXNhbm5lMRAwDgYDVQQKDAdJTW92aWVz
MQswCQYDVQQLDAJDQTEQMA4GA1UEAwwHaW1vdmllczEfMB0GCSqGSIb3DQEJARYQ
YWRtaW5AaW1vdmllcy5jaDAeFw0yMTExMjQxNTUwNDlaFw0yMjExMjQxNTUwNDla
MH8xCzAJBgNVBAYTAkNIMQswCQYDVQQIDAJWRDEQMA4GA1UECgwHSU1vdmllczEV
MBMGA1UECwwMSW50ZXJtZWRpYXRlMRkwFwYDVQQDDBBjYXNlcnZlci5pbW92aWVz
MR8wHQYJKoZIhvcNAQkBFhBhZG1pbkBpbW92aWVzLmNoMIIBIjANBgkqhkiG9w0B
AQEFAAOCAQ8AMIIBCgKCAQEAzhcnVqpZZWt3Jd7ZrvKLJsSqxX1Va6HA8qPmyyKu
SStMDlGleh6N2nmuPMnxXu7T72tg2wGcihb2jw12kEreX+0AidfM+UJx1tyJ8BTn
RT0NW1puv57oD4UFMsPZGNDZHx4LbcA2BkyIBKg5czIsqFF0K+MBSQCIZ5PD6IGL
ekdAYTgAxrwyiPjM5QZ0+P/3HkPG6cVhejKmUauGSKtgB67BPGmtzpP1rMrgsFKd
00cuCFXqjLLCTxoXrFxOU22mf2yIbd4smAkiTb8KQA6PBCuNiZr44zhnHPoZ08af
tPVRxYNCKyq5zl5b7OglwUz14wccxqLmReV9dHZDCGWWhQIDAQABo2YwZDAdBgNV
HQ4EFgQUyJRjsgZd+fHSlPfVQzw/SxDi8hMwHwYDVR0jBBgwFoAUQ5YzcIsybkqG
/bZpCkc6FUqwa3cwEgYDVR0TAQH/BAgwBgEB/wIBADAOBgNVHQ8BAf8EBAMCAYYw
DQYJKoZIhvcNAQELBQADggEBAK1bS7ex8MBNpxOzUQanyzaSDB5ZevByHVRhJzMI
1WSAowGrKeQ2os6iK/lTwu8sHiVKKS+XmDaKRsAPiVXWSenLOiiqFtbPn+I9J8UA
u2L5B/GS6NcdlY/Wis+lhHsw5KC3s6HD5316fbdE5/tGa0GkdtAXtwY+HZF3u/HQ
825r01Wtm9sG/alfjNV077R6iDYKM42qBG4aO4PpYOzsMvBOVPqSiS71lrjqZzHf
K1lu+dRz8wbpbjF7XSDs+JDGuyDnBZiRnC9/KsIddfkgicYOHBT7nPNONTqp0Cel
tsACPegIinuIgEsvwRjDLZgvoza/39tPAvF7sgszEoPanMU=
-----END CERTIFICATE-----
-----BEGIN CERTIFICATE-----
MIIEHTCCAwWgAwIBAgIUJxxKv2Vqy7BXdSNZD+qE+SVhA6swDQYJKoZIhvcNAQEL
BQAwfzELMAkGA1UEBhMCQ0gxCzAJBgNVBAgMAlZEMREwDwYDVQQHDAhMYXVzYW5u
ZTEQMA4GA1UECgwHSU1vdmllczELMAkGA1UECwwCQ0ExEDAOBgNVBAMMB2ltb3Zp
ZXMxHzAdBgkqhkiG9w0BCQEWEGFkbWluQGltb3ZpZXMuY2gwHhcNMjExMTI0MTU1
MDQyWhcNMjIxMTI0MTU1MDQyWjB/MQswCQYDVQQGEwJDSDELMAkGA1UECAwCVkQx
ETAPBgNVBAcMCExhdXNhbm5lMRAwDgYDVQQKDAdJTW92aWVzMQswCQYDVQQLDAJD
QTEQMA4GA1UEAwwHaW1vdmllczEfMB0GCSqGSIb3DQEJARYQYWRtaW5AaW1vdmll
cy5jaDCCASIwDQYJKoZIhvcNAQEBBQADggEPADCCAQoCggEBANL78XPKn/8LUu3u
B7mYN21U1/eGwsgXvtutE5f3DM1ImdMPCyNmRfcYdEEJI/o1zp1FeHm6MUKGSjWA
Bb0IUXqQmtty+2DrtLzhqxecDH11d8LL9vOQBJ5Y93+4H8rSX/EpsjvrbMgx5nlf
zA/rZNXUuWsnb8pjohyTLScQtfHhQJa4dwDrD5VysDzgnOJsa/Kswu6M0uZu3oj0
XZWvjpUV6ldjByj6D2Q3zP1k2MDLB1vwUqEoFEif4CF7ccnk3zuKNjLNebVZEE1h
7FscN0QX8eR5pFvXoaoYFIC/6Ae3GJleayoGjF+5zqV9qAMAOWCxjZSOLnn4bycD
clnDJQ8CAwEAAaOBkDCBjTAdBgNVHQ4EFgQUQ5YzcIsybkqG/bZpCkc6FUqwa3cw
KgYDVR0RBCMwIYIHaW1vdmllc4ILd2ViLmltb3ZpZXOCCSouaW1vdmllczAfBgNV
HSMEGDAWgBRDljNwizJuSob9tmkKRzoVSrBrdzAPBgNVHRMBAf8EBTADAQH/MA4G
A1UdDwEB/wQEAwIBhjANBgkqhkiG9w0BAQsFAAOCAQEAHlKC8JJ9DXFlfuDc/TQ3
IMcfi68OwLHckjBn145CswwwRcLl6NWWo4ZR1/NCXwXAKLrorrNe3dPsqsmWg1o6
ELoAN1xOOy/K8FthtlQL32i8ZzoSXzCrO4w73Sq7hkekZUETINethJVLp5j6Z1uX
FqUsiHNCRje27Pk8I7/qrQIKNuhUoqOUTDzDoncsa92Uhlp86mLFbcqpbzKR7+V4
OBGvWs3OjC8yjSjmIIkf+E30nkvqbCFSQup/25OO9Xj94u5wE2TYvGXjkXnJ8L8M
yafiZAoqtj8HKq67S0MeoED6sNwGYsUmyVgl/p5H4TyDL7T+SgUKzD5Ry0ssRt7n
eQ==
-----END CERTIFICATE-----
