Certificate:
    Data:
        Version: 3 (0x2)
        Serial Number: 6 (0x6)
        Signature Algorithm: sha256WithRSAEncryption
        Issuer: C=CH, ST=VD, L=Lausanne, O=IMovies, OU=CA, CN=imovies/emailAddress=admin@imovies.ch
        Validity
            Not Before: Nov  5 15:48:11 2021 GMT
            Not After : Nov  5 15:48:11 2022 GMT
        Subject: C=CH, ST=VD, O=IMovies, OU=Intermediate, CN=caserver.imovies
        Subject Public Key Info:
            Public Key Algorithm: rsaEncryption
                RSA Public-Key: (1024 bit)
                Modulus:
                    00:d5:37:1b:12:74:7a:27:89:45:83:c5:f1:00:d8:
                    f3:a6:de:35:d5:c5:a0:41:98:87:43:f8:67:8c:92:
                    e5:5f:6b:92:29:62:9b:f6:70:b2:0a:a3:3d:af:5e:
                    10:27:d8:a3:48:ee:ed:7a:9e:b0:61:72:f1:ea:57:
                    4a:c5:59:ed:6f:56:2b:a1:a1:db:bb:b3:5a:c6:c4:
                    92:b8:77:aa:c1:9d:d0:88:2a:ce:d8:6b:fd:40:5f:
                    db:32:57:4b:86:e1:f7:25:8c:a2:94:ab:c9:74:73:
                    68:b6:26:55:9d:40:7d:30:62:25:c7:e0:47:3e:2c:
                    91:c1:25:43:63:63:dd:5d:c1
                Exponent: 65537 (0x10001)
        X509v3 extensions:
            X509v3 Subject Key Identifier: 
                32:13:DD:15:EE:01:1B:B5:09:43:F2:4D:53:EF:8B:40:FF:E3:AD:38
            X509v3 Authority Key Identifier: 
                keyid:D8:4E:D5:75:2A:93:85:16:F4:6D:40:87:81:1F:6C:4C:64:2E:7D:B2

            X509v3 Basic Constraints: critical
                CA:TRUE, pathlen:0
            X509v3 Key Usage: critical
                Digital Signature, Certificate Sign, CRL Sign
    Signature Algorithm: sha256WithRSAEncryption
         00:df:01:fd:45:b4:cf:23:ec:de:71:4b:40:0b:8e:c7:b2:4c:
         29:f9:06:1d:3e:b4:c4:28:cf:bb:6f:2d:98:58:07:95:30:b5:
         f5:43:8d:2e:86:8f:72:ba:b9:9f:6f:e0:9b:69:ad:54:58:cc:
         57:97:f4:e3:f5:45:cf:12:0f:b7:c7:84:af:f6:f6:1e:e1:83:
         ea:a0:72:e0:82:c7:e7:07:f1:06:84:ea:17:9a:d0:f9:12:b7:
         72:1d:6a:e8:9e:97:8c:4f:c6:80:49:5b:d4:76:20:fe:d2:17:
         e4:a0:ef:37:12:56:54:21:d9:44:1a:1b:0c:c4:6f:e0:3c:30:
         ac:0f
-----BEGIN CERTIFICATE-----
MIICuTCCAiKgAwIBAgIBBjANBgkqhkiG9w0BAQsFADB/MQswCQYDVQQGEwJDSDEL
MAkGA1UECBMCVkQxETAPBgNVBAcTCExhdXNhbm5lMRAwDgYDVQQKEwdJTW92aWVz
MQswCQYDVQQLEwJDQTEQMA4GA1UEAxMHaW1vdmllczEfMB0GCSqGSIb3DQEJARYQ
YWRtaW5AaW1vdmllcy5jaDAeFw0yMTExMDUxNTQ4MTFaFw0yMjExMDUxNTQ4MTFa
MF4xCzAJBgNVBAYTAkNIMQswCQYDVQQIEwJWRDEQMA4GA1UEChMHSU1vdmllczEV
MBMGA1UECxMMSW50ZXJtZWRpYXRlMRkwFwYDVQQDExBjYXNlcnZlci5pbW92aWVz
MIGfMA0GCSqGSIb3DQEBAQUAA4GNADCBiQKBgQDVNxsSdHoniUWDxfEA2POm3jXV
xaBBmIdD+GeMkuVfa5IpYpv2cLIKoz2vXhAn2KNI7u16nrBhcvHqV0rFWe1vViuh
odu7s1rGxJK4d6rBndCIKs7Ya/1AX9syV0uG4fcljKKUq8l0c2i2JlWdQH0wYiXH
4Ec+LJHBJUNjY91dwQIDAQABo2YwZDAdBgNVHQ4EFgQUMhPdFe4BG7UJQ/JNU++L
QP/jrTgwHwYDVR0jBBgwFoAU2E7VdSqThRb0bUCHgR9sTGQufbIwEgYDVR0TAQH/
BAgwBgEB/wIBADAOBgNVHQ8BAf8EBAMCAYYwDQYJKoZIhvcNAQELBQADgYEAAN8B
/UW0zyPs3nFLQAuOx7JMKfkGHT60xCjPu28tmFgHlTC19UONLoaPcrq5n2/gm2mt
VFjMV5f04/VFzxIPt8eEr/b2HuGD6qBy4ILH5wfxBoTqF5rQ+RK3ch1q6J6XjE/G
gElb1HYg/tIX5KDvNxJWVCHZRBobDMRv4DwwrA8=
-----END CERTIFICATE-----
