Certificate:
    Data:
        Version: 3 (0x2)
        Serial Number: 6 (0x6)
        Signature Algorithm: md5WithRSAEncryption
        Issuer: C=CH, ST=VD, L=Lausanne, O=IMovies, OU=CA, CN=imovies/emailAddress=admin@imovies.ch
        Validity
            Not Before: Nov  5 11:05:14 2021 GMT
            Not After : Nov  5 11:05:14 2022 GMT
        Subject: C=CH, ST=VD, O=IMovies, OU=Intermediate, CN=caserver.imovies
        Subject Public Key Info:
            Public Key Algorithm: rsaEncryption
                RSA Public-Key: (1024 bit)
                Modulus:
                    00:a1:f9:6a:df:d6:d6:0f:2c:12:3d:32:7d:c4:4d:
                    1e:35:40:41:65:00:1f:97:cb:d9:cf:d9:7a:f7:56:
                    2f:0e:90:16:81:1c:39:43:ff:0b:56:c7:74:1d:6b:
                    63:2e:cb:72:dc:86:5c:a7:dc:a6:56:a6:0b:cf:77:
                    2b:30:54:2a:b6:51:6d:9d:62:77:c9:56:31:d9:47:
                    56:62:1c:8a:c8:70:ad:e9:aa:e7:61:24:a5:61:8e:
                    fa:ad:a6:5f:e5:37:d0:21:77:50:c5:ac:85:e8:93:
                    9b:6c:a4:f4:65:9f:90:39:e6:0b:5c:bb:16:9d:49:
                    26:4d:07:fb:6f:bb:56:3c:33
                Exponent: 65537 (0x10001)
        X509v3 extensions:
            X509v3 Subject Key Identifier: 
                42:A8:69:9E:BB:B6:52:43:05:F4:40:50:40:F0:80:35:DD:58:88:9D
            X509v3 Authority Key Identifier: 
                keyid:D8:4E:D5:75:2A:93:85:16:F4:6D:40:87:81:1F:6C:4C:64:2E:7D:B2

            X509v3 Basic Constraints: critical
                CA:TRUE, pathlen:0
            X509v3 Key Usage: critical
                Digital Signature, Certificate Sign, CRL Sign
    Signature Algorithm: md5WithRSAEncryption
         5b:bd:c6:06:92:82:34:a8:73:d1:78:a6:41:e6:a8:95:66:70:
         0a:03:70:c1:54:99:cf:1e:b4:38:27:ac:d5:06:1d:53:c7:93:
         b6:7f:d0:e3:de:40:14:ad:5a:b2:df:7f:48:4b:c0:25:b0:21:
         50:e0:20:44:9a:45:16:c8:50:c3:2c:83:e6:b4:c9:16:80:cb:
         53:5b:57:6f:d3:d7:01:e9:5a:42:50:a6:6d:4d:76:ff:3b:4d:
         1d:95:28:60:97:99:e2:3c:96:97:54:60:4d:98:39:14:0f:51:
         8e:0c:95:19:1e:67:66:f1:ec:9c:64:c7:8f:82:b2:a8:19:17:
         df:a4
-----BEGIN CERTIFICATE-----
MIICuTCCAiKgAwIBAgIBBjANBgkqhkiG9w0BAQQFADB/MQswCQYDVQQGEwJDSDEL
MAkGA1UECBMCVkQxETAPBgNVBAcTCExhdXNhbm5lMRAwDgYDVQQKEwdJTW92aWVz
MQswCQYDVQQLEwJDQTEQMA4GA1UEAxMHaW1vdmllczEfMB0GCSqGSIb3DQEJARYQ
YWRtaW5AaW1vdmllcy5jaDAeFw0yMTExMDUxMTA1MTRaFw0yMjExMDUxMTA1MTRa
MF4xCzAJBgNVBAYTAkNIMQswCQYDVQQIEwJWRDEQMA4GA1UEChMHSU1vdmllczEV
MBMGA1UECxMMSW50ZXJtZWRpYXRlMRkwFwYDVQQDExBjYXNlcnZlci5pbW92aWVz
MIGfMA0GCSqGSIb3DQEBAQUAA4GNADCBiQKBgQCh+Wrf1tYPLBI9Mn3ETR41QEFl
AB+Xy9nP2Xr3Vi8OkBaBHDlD/wtWx3Qda2Muy3Lchlyn3KZWpgvPdyswVCq2UW2d
YnfJVjHZR1ZiHIrIcK3pqudhJKVhjvqtpl/lN9Ahd1DFrIXok5tspPRln5A55gtc
uxadSSZNB/tvu1Y8MwIDAQABo2YwZDAdBgNVHQ4EFgQUQqhpnru2UkMF9EBQQPCA
Nd1YiJ0wHwYDVR0jBBgwFoAU2E7VdSqThRb0bUCHgR9sTGQufbIwEgYDVR0TAQH/
BAgwBgEB/wIBADAOBgNVHQ8BAf8EBAMCAYYwDQYJKoZIhvcNAQEEBQADgYEAW73G
BpKCNKhz0XimQeaolWZwCgNwwVSZzx60OCes1QYdU8eTtn/Q495AFK1ast9/SEvA
JbAhUOAgRJpFFshQwyyD5rTJFoDLU1tXb9PXAelaQlCmbU12/ztNHZUoYJeZ4jyW
l1RgTZg5FA9RjgyVGR5nZvHsnGTHj4KyqBkX36Q=
-----END CERTIFICATE-----
