Certificate:
    Data:
        Version: 1 (0x0)
        Serial Number: 2 (0x2)
        Signature Algorithm: md5WithRSAEncryption
        Issuer: C=CH, ST=VD, L=Lausanne, O=IMovies, OU=CA, CN=imovies/emailAddress=admin@imovies.ch
        Validity
            Not Before: Nov  5 11:05:11 2021 GMT
            Not After : Nov  5 11:05:11 2022 GMT
        Subject: C=CH, ST=VD, O=IMovies, OU=Firewall, CN=firewall.imovies
        Subject Public Key Info:
            Public Key Algorithm: rsaEncryption
                RSA Public-Key: (1024 bit)
                Modulus:
                    00:b8:00:f3:6e:9c:b4:94:1b:bb:41:19:0e:61:80:
                    39:54:20:fe:94:b4:39:7b:df:c0:00:f6:0f:d0:dd:
                    03:e1:03:e7:80:1f:90:61:28:3b:cc:f5:55:10:24:
                    87:7a:15:f4:31:a4:71:a4:ed:15:f7:7b:a1:99:25:
                    b3:1c:9f:76:65:d6:f3:7a:45:19:c4:4f:77:b7:2b:
                    41:49:81:cd:32:c7:fc:4c:bb:ea:0c:c9:e7:9f:cb:
                    7a:ea:5f:91:53:02:0f:cd:b9:8c:20:76:6d:25:f0:
                    b5:3d:93:77:1f:e4:29:4f:39:65:b1:3e:ca:e7:61:
                    4a:4e:36:26:a0:35:ed:b9:a5
                Exponent: 65537 (0x10001)
    Signature Algorithm: md5WithRSAEncryption
         18:c8:20:29:38:b1:f1:be:9d:bc:11:11:17:2d:37:3e:08:7b:
         a3:7f:99:9e:92:8c:d8:32:c5:0c:69:95:54:f7:a1:2f:88:7d:
         fc:22:0a:c8:b9:0b:cb:41:ad:4c:e6:6b:1f:a0:51:d3:8d:0d:
         22:5a:f0:4a:9e:18:e1:68:a9:31:f3:95:38:83:f5:6d:63:9d:
         91:8e:33:fd:c5:88:a6:71:ba:ed:43:1e:a6:4b:1d:a4:4b:24:
         39:16:6c:37:65:fc:7e:10:ea:37:9d:a9:e3:f9:54:74:c8:3c:
         f0:f2:98:93:d1:88:9c:29:83:52:66:a5:98:60:32:70:f3:8f:
         2a:fa
-----BEGIN CERTIFICATE-----
MIICSDCCAbECAQIwDQYJKoZIhvcNAQEEBQAwfzELMAkGA1UEBhMCQ0gxCzAJBgNV
BAgTAlZEMREwDwYDVQQHEwhMYXVzYW5uZTEQMA4GA1UEChMHSU1vdmllczELMAkG
A1UECxMCQ0ExEDAOBgNVBAMTB2ltb3ZpZXMxHzAdBgkqhkiG9w0BCQEWEGFkbWlu
QGltb3ZpZXMuY2gwHhcNMjExMTA1MTEwNTExWhcNMjIxMTA1MTEwNTExWjBaMQsw
CQYDVQQGEwJDSDELMAkGA1UECAwCVkQxEDAOBgNVBAoMB0lNb3ZpZXMxETAPBgNV
BAsMCEZpcmV3YWxsMRkwFwYDVQQDDBBmaXJld2FsbC5pbW92aWVzMIGfMA0GCSqG
SIb3DQEBAQUAA4GNADCBiQKBgQC4APNunLSUG7tBGQ5hgDlUIP6UtDl738AA9g/Q
3QPhA+eAH5BhKDvM9VUQJId6FfQxpHGk7RX3e6GZJbMcn3Zl1vN6RRnET3e3K0FJ
gc0yx/xMu+oMyeefy3rqX5FTAg/NuYwgdm0l8LU9k3cf5ClPOWWxPsrnYUpONiag
Ne25pQIDAQABMA0GCSqGSIb3DQEBBAUAA4GBABjIICk4sfG+nbwRERctNz4Ie6N/
mZ6SjNgyxQxplVT3oS+IffwiCsi5C8tBrUzmax+gUdONDSJa8EqeGOFoqTHzlTiD
9W1jnZGOM/3FiKZxuu1DHqZLHaRLJDkWbDdl/H4Q6jedqeP5VHTIPPDymJPRiJwp
g1JmpZhgMnDzjyr6
-----END CERTIFICATE-----
