Certificate:
    Data:
        Version: 1 (0x0)
        Serial Number: 4 (0x4)
        Signature Algorithm: md5WithRSAEncryption
        Issuer: C=CH, ST=VD, L=Lausanne, O=IMovies, OU=CA, CN=imovies/emailAddress=admin@imovies.ch
        Validity
            Not Before: Nov  5 11:05:12 2021 GMT
            Not After : Nov  5 11:05:12 2022 GMT
        Subject: C=CH, ST=VD, O=IMovies, OU=DB, CN=db.imovies.
        Subject Public Key Info:
            Public Key Algorithm: rsaEncryption
                RSA Public-Key: (1024 bit)
                Modulus:
                    00:b9:ca:7c:dc:2c:20:d4:4b:9a:61:e8:72:db:5f:
                    b8:e5:ed:f4:ab:f0:30:4d:1b:03:61:fa:27:08:c8:
                    b7:d8:a3:ff:95:60:ed:d2:4e:e1:9a:2a:4c:cd:78:
                    9f:cd:90:30:43:79:10:07:9e:94:46:07:99:8c:d4:
                    5b:b9:90:c4:67:20:77:72:d9:f3:bc:7f:b7:ae:9a:
                    d2:d3:32:6c:ac:64:60:33:68:fd:11:2b:16:03:cd:
                    4b:71:43:2c:12:cb:e5:fa:23:89:fb:1e:4f:9e:18:
                    0f:af:bf:d1:0f:c5:28:c4:29:c8:c2:5d:22:38:e1:
                    0b:54:ab:f5:d8:d7:a2:b5:59
                Exponent: 65537 (0x10001)
    Signature Algorithm: md5WithRSAEncryption
         17:f3:9b:fe:c7:c4:55:84:53:88:a7:ba:44:74:c9:36:b8:8a:
         21:41:88:4d:e9:71:46:a1:7a:d6:f1:15:0c:d8:58:20:ab:e9:
         96:b8:ce:17:8c:71:47:54:db:8b:ed:05:48:5a:9b:ff:d6:4c:
         8b:47:34:51:de:30:a7:5d:6d:66:99:0a:bf:df:2c:0d:99:9e:
         74:23:bc:c7:88:bd:6a:e2:90:eb:1f:cc:97:0c:f9:65:a9:0f:
         85:ab:25:67:fd:d5:ab:c2:60:83:86:a1:73:73:08:e4:2e:b5:
         7a:2b:f8:7e:2a:88:f9:af:34:26:73:3a:98:95:4f:ec:45:b0:
         f3:aa
-----BEGIN CERTIFICATE-----
MIICPTCCAaYCAQQwDQYJKoZIhvcNAQEEBQAwfzELMAkGA1UEBhMCQ0gxCzAJBgNV
BAgTAlZEMREwDwYDVQQHEwhMYXVzYW5uZTEQMA4GA1UEChMHSU1vdmllczELMAkG
A1UECxMCQ0ExEDAOBgNVBAMTB2ltb3ZpZXMxHzAdBgkqhkiG9w0BCQEWEGFkbWlu
QGltb3ZpZXMuY2gwHhcNMjExMTA1MTEwNTEyWhcNMjIxMTA1MTEwNTEyWjBPMQsw
CQYDVQQGEwJDSDELMAkGA1UECAwCVkQxEDAOBgNVBAoMB0lNb3ZpZXMxCzAJBgNV
BAsMAkRCMRQwEgYDVQQDDAtkYi5pbW92aWVzLjCBnzANBgkqhkiG9w0BAQEFAAOB
jQAwgYkCgYEAucp83Cwg1EuaYehy21+45e30q/AwTRsDYfonCMi32KP/lWDt0k7h
mipMzXifzZAwQ3kQB56URgeZjNRbuZDEZyB3ctnzvH+3rprS0zJsrGRgM2j9ESsW
A81LcUMsEsvl+iOJ+x5PnhgPr7/RD8UoxCnIwl0iOOELVKv12NeitVkCAwEAATAN
BgkqhkiG9w0BAQQFAAOBgQAX85v+x8RVhFOIp7pEdMk2uIohQYhN6XFGoXrW8RUM
2Fggq+mWuM4XjHFHVNuL7QVIWpv/1kyLRzRR3jCnXW1mmQq/3ywNmZ50I7zHiL1q
4pDrH8yXDPllqQ+FqyVn/dWrwmCDhqFzcwjkLrV6K/h+Koj5rzQmczqYlU/sRbDz
qg==
-----END CERTIFICATE-----
