Certificate:
    Data:
        Version: 1 (0x0)
        Serial Number: 4 (0x4)
        Signature Algorithm: md5WithRSAEncryption
        Issuer: C=CH, ST=VD, L=Lausanne, O=IMovies, OU=CA, CN=imovies/emailAddress=admin@imovies.ch
        Validity
            Not Before: Nov  4 16:49:01 2021 GMT
            Not After : Nov  4 16:49:01 2022 GMT
        Subject: C=CH, ST=VD, O=IMovies, OU=DB, CN=db.imovies.
        Subject Public Key Info:
            Public Key Algorithm: rsaEncryption
                RSA Public-Key: (1024 bit)
                Modulus:
                    00:cc:d5:2e:fb:43:ad:d2:ab:8f:0c:c2:7b:07:f1:
                    64:13:05:48:b1:eb:de:53:75:1a:7b:72:dc:91:b3:
                    1d:7a:27:92:40:fc:09:30:57:3e:07:c7:03:1e:b9:
                    23:96:1e:99:4c:52:03:9e:10:b1:5a:2c:bc:42:55:
                    ca:7f:12:7f:16:28:d7:f5:10:bf:cf:d5:f5:26:2b:
                    42:19:8f:62:5c:5d:92:b3:2d:f3:3f:ae:25:88:59:
                    9c:4b:aa:4a:a5:60:2b:05:37:c2:20:17:1c:b7:5d:
                    a0:52:ba:11:1c:87:6e:19:b7:2b:84:b7:ae:43:47:
                    1b:55:79:31:db:c1:81:db:e3
                Exponent: 65537 (0x10001)
    Signature Algorithm: md5WithRSAEncryption
         3d:e1:44:16:92:6d:6f:35:93:31:e0:c9:f0:6f:d6:08:38:5f:
         1d:cb:48:4d:18:05:d3:56:bd:54:f6:47:d2:2e:f3:8f:55:34:
         27:34:52:e8:4b:ec:66:84:2b:3c:21:54:69:25:0d:92:0e:71:
         5c:e2:26:9d:35:d0:38:30:0a:66:b5:73:2c:2b:95:a8:dc:fc:
         96:14:31:47:3d:7c:38:09:cf:7a:24:ea:b1:62:8c:0d:2c:52:
         6f:e2:e0:14:6d:1f:0b:35:3f:1e:13:6f:1b:46:f0:33:03:c6:
         1c:a3:a9:e0:1d:d3:3c:d0:22:63:50:4e:50:ec:e6:dd:44:e9:
         ca:06
-----BEGIN CERTIFICATE-----
MIICPTCCAaYCAQQwDQYJKoZIhvcNAQEEBQAwfzELMAkGA1UEBhMCQ0gxCzAJBgNV
BAgTAlZEMREwDwYDVQQHEwhMYXVzYW5uZTEQMA4GA1UEChMHSU1vdmllczELMAkG
A1UECxMCQ0ExEDAOBgNVBAMTB2ltb3ZpZXMxHzAdBgkqhkiG9w0BCQEWEGFkbWlu
QGltb3ZpZXMuY2gwHhcNMjExMTA0MTY0OTAxWhcNMjIxMTA0MTY0OTAxWjBPMQsw
CQYDVQQGEwJDSDELMAkGA1UECAwCVkQxEDAOBgNVBAoMB0lNb3ZpZXMxCzAJBgNV
BAsMAkRCMRQwEgYDVQQDDAtkYi5pbW92aWVzLjCBnzANBgkqhkiG9w0BAQEFAAOB
jQAwgYkCgYEAzNUu+0Ot0quPDMJ7B/FkEwVIseveU3Uae3LckbMdeieSQPwJMFc+
B8cDHrkjlh6ZTFIDnhCxWiy8QlXKfxJ/FijX9RC/z9X1JitCGY9iXF2Ssy3zP64l
iFmcS6pKpWArBTfCIBcct12gUroRHIduGbcrhLeuQ0cbVXkx28GB2+MCAwEAATAN
BgkqhkiG9w0BAQQFAAOBgQA94UQWkm1vNZMx4Mnwb9YIOF8dy0hNGAXTVr1U9kfS
LvOPVTQnNFLoS+xmhCs8IVRpJQ2SDnFc4iadNdA4MApmtXMsK5Wo3PyWFDFHPXw4
Cc96JOqxYowNLFJv4uAUbR8LNT8eE28bRvAzA8Yco6ngHdM80CJjUE5Q7ObdROnK
Bg==
-----END CERTIFICATE-----
