Certificate:
    Data:
        Version: 1 (0x0)
        Serial Number: 1 (0x1)
        Signature Algorithm: md5WithRSAEncryption
        Issuer: C=CH, ST=VD, L=Lausanne, O=IMovies, OU=CA, CN=imovies/emailAddress=admin@imovies.ch
        Validity
            Not Before: Nov  5 11:05:09 2021 GMT
            Not After : Nov  5 11:05:09 2022 GMT
        Subject: C=CH, ST=VD, O=IMovies, OU=Web, CN=web.imovies
        Subject Public Key Info:
            Public Key Algorithm: rsaEncryption
                RSA Public-Key: (1024 bit)
                Modulus:
                    00:d1:20:5b:c6:22:98:cb:9c:19:cc:42:43:61:b7:
                    14:09:0e:47:82:91:8c:a1:e1:45:bb:78:78:b9:9b:
                    56:37:ca:b3:14:b6:67:5d:88:a8:ed:d6:64:ea:b6:
                    cb:2b:72:16:1c:4b:64:e7:ed:c6:90:91:04:e3:48:
                    38:94:53:ed:94:c4:08:62:1c:b2:57:31:a0:b4:70:
                    37:ef:71:47:a9:51:21:9a:ba:cb:7f:d0:55:d6:58:
                    90:81:39:13:02:71:35:81:c3:d2:bb:15:f1:de:1c:
                    0b:20:61:29:5c:9a:5c:c5:00:8b:fc:0d:2e:13:40:
                    4e:75:5a:9c:60:b2:7b:60:df
                Exponent: 65537 (0x10001)
    Signature Algorithm: md5WithRSAEncryption
         76:5d:c4:97:1b:95:83:93:fa:42:c2:36:f6:0f:74:98:27:18:
         39:cc:bb:f6:df:a0:8a:dc:ec:37:97:b3:ed:03:77:81:8b:52:
         98:27:d6:2f:b2:8e:47:c3:7d:66:5f:b2:9c:75:ae:c0:dd:6e:
         c5:73:e5:d6:8e:9a:b7:21:b5:b4:27:a6:41:31:b2:f0:46:bb:
         a2:13:bc:2f:4e:c3:3a:ee:31:2c:5d:d1:46:af:32:6d:66:0c:
         85:64:b8:df:2c:be:4e:40:60:4c:a6:58:a0:bf:61:58:b6:a3:
         71:d8:dd:96:fc:3c:a2:78:b4:47:3d:8d:6c:49:7a:d9:6c:b6:
         94:bd
-----BEGIN CERTIFICATE-----
MIICPjCCAacCAQEwDQYJKoZIhvcNAQEEBQAwfzELMAkGA1UEBhMCQ0gxCzAJBgNV
BAgTAlZEMREwDwYDVQQHEwhMYXVzYW5uZTEQMA4GA1UEChMHSU1vdmllczELMAkG
A1UECxMCQ0ExEDAOBgNVBAMTB2ltb3ZpZXMxHzAdBgkqhkiG9w0BCQEWEGFkbWlu
QGltb3ZpZXMuY2gwHhcNMjExMTA1MTEwNTA5WhcNMjIxMTA1MTEwNTA5WjBQMQsw
CQYDVQQGEwJDSDELMAkGA1UECAwCVkQxEDAOBgNVBAoMB0lNb3ZpZXMxDDAKBgNV
BAsMA1dlYjEUMBIGA1UEAwwLd2ViLmltb3ZpZXMwgZ8wDQYJKoZIhvcNAQEBBQAD
gY0AMIGJAoGBANEgW8YimMucGcxCQ2G3FAkOR4KRjKHhRbt4eLmbVjfKsxS2Z12I
qO3WZOq2yytyFhxLZOftxpCRBONIOJRT7ZTECGIcslcxoLRwN+9xR6lRIZq6y3/Q
VdZYkIE5EwJxNYHD0rsV8d4cCyBhKVyaXMUAi/wNLhNATnVanGCye2DfAgMBAAEw
DQYJKoZIhvcNAQEEBQADgYEAdl3ElxuVg5P6QsI29g90mCcYOcy79t+gitzsN5ez
7QN3gYtSmCfWL7KOR8N9Zl+ynHWuwN1uxXPl1o6atyG1tCemQTGy8Ea7ohO8L07D
Ou4xLF3RRq8ybWYMhWS43yy+TkBgTKZYoL9hWLajcdjdlvw8oni0Rz2NbEl62Wy2
lL0=
-----END CERTIFICATE-----
