Certificate:
    Data:
        Version: 1 (0x0)
        Serial Number: 5 (0x5)
        Signature Algorithm: sha256WithRSAEncryption
        Issuer: C=CH, ST=VD, L=Lausanne, O=IMovies, OU=CA, CN=imovies/emailAddress=admin@imovies.ch
        Validity
            Not Before: Nov  5 15:48:10 2021 GMT
            Not After : Nov  5 15:48:10 2022 GMT
        Subject: C=CH, ST=VD, O=IMovies, OU=Backup, CN=backup.imovies
        Subject Public Key Info:
            Public Key Algorithm: rsaEncryption
                RSA Public-Key: (1024 bit)
                Modulus:
                    00:c3:82:20:1c:65:b7:84:82:5a:7c:74:c9:ce:95:
                    08:16:cf:b5:5f:f3:d6:5a:db:c4:6c:e5:58:d6:d4:
                    fe:3c:0b:e9:27:78:94:ee:ad:1d:82:83:80:8f:c3:
                    93:81:55:7b:76:29:e6:2f:ca:7e:28:ea:4d:5f:f4:
                    5e:71:85:48:73:40:ec:c0:d6:3e:86:30:15:51:08:
                    0f:15:76:c4:52:59:e7:cf:97:63:cf:89:f0:12:48:
                    e0:61:c2:d3:5a:a8:f8:eb:34:ca:f1:92:52:2c:4c:
                    37:1b:05:e2:f1:11:f9:59:a7:3a:f1:6c:76:bc:d0:
                    d2:ae:d5:f6:b8:29:bf:36:c1
                Exponent: 65537 (0x10001)
    Signature Algorithm: sha256WithRSAEncryption
         3f:3d:d9:fe:70:ab:19:f6:ae:bd:8b:fa:2e:41:d8:cd:60:6a:
         c8:8c:6a:fc:69:85:1b:47:bf:a4:0e:c4:29:6c:41:ff:93:0b:
         af:96:b5:bd:e4:ff:dd:26:bb:f1:82:13:d5:99:f0:94:ec:27:
         54:30:e6:bd:2d:37:00:4d:4e:79:fd:8a:6d:5d:1e:ca:be:ca:
         52:61:b6:bf:68:a4:93:00:3e:b3:a7:7b:e2:ba:85:d8:d4:32:
         94:19:2d:40:cf:2b:16:3a:c8:58:6f:32:58:2a:80:d7:9c:01:
         b2:d9:ea:51:99:48:0d:73:e4:dd:72:48:4e:dc:c2:05:40:d0:
         44:28
-----BEGIN CERTIFICATE-----
MIICRDCCAa0CAQUwDQYJKoZIhvcNAQELBQAwfzELMAkGA1UEBhMCQ0gxCzAJBgNV
BAgTAlZEMREwDwYDVQQHEwhMYXVzYW5uZTEQMA4GA1UEChMHSU1vdmllczELMAkG
A1UECxMCQ0ExEDAOBgNVBAMTB2ltb3ZpZXMxHzAdBgkqhkiG9w0BCQEWEGFkbWlu
QGltb3ZpZXMuY2gwHhcNMjExMTA1MTU0ODEwWhcNMjIxMTA1MTU0ODEwWjBWMQsw
CQYDVQQGEwJDSDELMAkGA1UECAwCVkQxEDAOBgNVBAoMB0lNb3ZpZXMxDzANBgNV
BAsMBkJhY2t1cDEXMBUGA1UEAwwOYmFja3VwLmltb3ZpZXMwgZ8wDQYJKoZIhvcN
AQEBBQADgY0AMIGJAoGBAMOCIBxlt4SCWnx0yc6VCBbPtV/z1lrbxGzlWNbU/jwL
6Sd4lO6tHYKDgI/Dk4FVe3Yp5i/KfijqTV/0XnGFSHNA7MDWPoYwFVEIDxV2xFJZ
58+XY8+J8BJI4GHC01qo+Os0yvGSUixMNxsF4vER+VmnOvFsdrzQ0q7V9rgpvzbB
AgMBAAEwDQYJKoZIhvcNAQELBQADgYEAPz3Z/nCrGfauvYv6LkHYzWBqyIxq/GmF
G0e/pA7EKWxB/5MLr5a1veT/3Sa78YIT1ZnwlOwnVDDmvS03AE1Oef2KbV0eyr7K
UmG2v2ikkwA+s6d74rqF2NQylBktQM8rFjrIWG8yWCqA15wBstnqUZlIDXPk3XJI
TtzCBUDQRCg=
-----END CERTIFICATE-----
