Certificate:
    Data:
        Version: 1 (0x0)
        Serial Number: 1 (0x1)
        Signature Algorithm: md5WithRSAEncryption
        Issuer: C=CH, ST=VD, L=Lausanne, O=IMovies, OU=CA, CN=imovies/emailAddress=admin@imovies.ch
        Validity
            Not Before: Nov  4 16:48:57 2021 GMT
            Not After : Nov  4 16:48:57 2022 GMT
        Subject: C=CH, ST=VD, O=IMovies, OU=Web, CN=web.imovies
        Subject Public Key Info:
            Public Key Algorithm: rsaEncryption
                RSA Public-Key: (1024 bit)
                Modulus:
                    00:e6:a3:41:8d:18:07:f4:91:aa:fc:f1:6a:84:9a:
                    f8:53:bc:3a:38:7e:a4:b3:ba:42:03:a1:37:f6:b3:
                    bd:10:ae:91:2a:b3:47:ba:ee:6c:9d:dd:43:37:93:
                    93:87:22:6d:b3:68:37:ad:e1:ad:c0:97:0e:50:06:
                    87:56:02:f0:a6:95:67:00:e6:24:ab:65:13:8e:fb:
                    90:00:04:cc:39:b2:5c:92:cb:a9:c9:bb:ec:4f:6e:
                    0d:eb:aa:01:cc:49:20:1e:5b:d2:e4:0e:70:82:7e:
                    fd:78:41:c5:7e:de:7d:08:5c:bd:f9:fd:39:88:26:
                    41:f4:da:ec:9f:14:82:dc:a1
                Exponent: 65537 (0x10001)
    Signature Algorithm: md5WithRSAEncryption
         18:a5:50:1e:de:2b:f3:c2:96:7f:bd:8d:f8:ed:24:4e:68:df:
         62:83:6a:f2:47:85:f2:c7:2e:9c:f4:e3:ac:2c:f7:41:f2:95:
         60:52:29:16:e7:90:13:30:7c:89:1b:10:e9:89:5c:92:2c:ae:
         52:f3:08:df:33:98:1b:e1:62:89:55:15:28:2b:04:6a:44:ce:
         7c:9f:92:08:e4:12:ac:0e:58:30:44:69:0f:b7:ed:4f:00:f5:
         6b:22:0d:ba:ee:d9:4f:af:6b:26:65:6b:24:fc:97:8d:04:ef:
         22:53:4c:45:75:27:a9:e3:05:d6:95:fc:72:84:7c:85:3a:42:
         5d:3b
-----BEGIN CERTIFICATE-----
MIICPjCCAacCAQEwDQYJKoZIhvcNAQEEBQAwfzELMAkGA1UEBhMCQ0gxCzAJBgNV
BAgTAlZEMREwDwYDVQQHEwhMYXVzYW5uZTEQMA4GA1UEChMHSU1vdmllczELMAkG
A1UECxMCQ0ExEDAOBgNVBAMTB2ltb3ZpZXMxHzAdBgkqhkiG9w0BCQEWEGFkbWlu
QGltb3ZpZXMuY2gwHhcNMjExMTA0MTY0ODU3WhcNMjIxMTA0MTY0ODU3WjBQMQsw
CQYDVQQGEwJDSDELMAkGA1UECAwCVkQxEDAOBgNVBAoMB0lNb3ZpZXMxDDAKBgNV
BAsMA1dlYjEUMBIGA1UEAwwLd2ViLmltb3ZpZXMwgZ8wDQYJKoZIhvcNAQEBBQAD
gY0AMIGJAoGBAOajQY0YB/SRqvzxaoSa+FO8Ojh+pLO6QgOhN/azvRCukSqzR7ru
bJ3dQzeTk4cibbNoN63hrcCXDlAGh1YC8KaVZwDmJKtlE477kAAEzDmyXJLLqcm7
7E9uDeuqAcxJIB5b0uQOcIJ+/XhBxX7efQhcvfn9OYgmQfTa7J8UgtyhAgMBAAEw
DQYJKoZIhvcNAQEEBQADgYEAGKVQHt4r88KWf72N+O0kTmjfYoNq8keF8scunPTj
rCz3QfKVYFIpFueQEzB8iRsQ6YlckiyuUvMI3zOYG+FiiVUVKCsEakTOfJ+SCOQS
rA5YMERpD7ftTwD1ayINuu7ZT69rJmVrJPyXjQTvIlNMRXUnqeMF1pX8coR8hTpC
XTs=
-----END CERTIFICATE-----
