Certificate:
    Data:
        Version: 1 (0x0)
        Serial Number: 1 (0x1)
        Signature Algorithm: sha256WithRSAEncryption
        Issuer: C=CH, ST=VD, L=Lausanne, O=IMovies, OU=CA, CN=imovies/emailAddress=admin@imovies.ch
        Validity
            Not Before: Nov 13 16:50:33 2021 GMT
            Not After : Nov 13 16:50:33 2022 GMT
        Subject: C=CH, ST=VD, O=IMovies, OU=Web, CN=web.imovies
        Subject Public Key Info:
            Public Key Algorithm: rsaEncryption
                RSA Public-Key: (2048 bit)
                Modulus:
                    00:d3:16:3c:b2:5d:26:28:7b:18:28:50:10:0c:28:
                    ee:f6:ff:50:41:fe:e4:16:00:38:f1:7f:ed:33:bf:
                    33:e8:5d:67:71:66:6f:58:74:2a:84:df:fd:71:c0:
                    93:3a:16:58:b0:19:92:8f:d0:59:d3:54:fb:81:77:
                    6a:b7:a0:23:1e:8d:81:05:fa:79:61:44:1e:4f:8f:
                    4f:5c:23:4c:30:43:8a:ea:2c:d0:6f:ea:89:4c:eb:
                    42:2a:71:af:db:81:4f:0f:15:f8:38:f4:52:b9:26:
                    12:d2:ce:95:d4:3c:67:48:40:09:62:63:45:61:e6:
                    e5:dd:df:16:ad:93:99:5d:bc:b6:b7:dd:25:78:1f:
                    0d:2e:30:68:61:97:13:7a:c3:23:eb:b8:43:1d:9c:
                    1b:33:b9:05:f8:29:35:54:03:7d:c5:97:2b:76:62:
                    34:d7:d7:1a:c1:71:9b:7c:cb:a1:35:f3:bb:53:79:
                    9b:5f:f3:a3:24:4d:2d:4b:2a:be:ff:8b:6b:6f:59:
                    9d:62:94:2d:b7:13:fb:91:ba:24:0e:b6:c8:b1:7f:
                    ca:b0:09:b5:ad:77:60:c2:6b:47:d8:30:73:f3:c8:
                    71:b0:89:f5:e1:55:3b:01:2a:ea:cd:b7:cc:a5:7c:
                    ee:47:63:08:2d:88:3c:6a:19:c3:94:83:03:b4:0e:
                    75:e1
                Exponent: 65537 (0x10001)
    Signature Algorithm: sha256WithRSAEncryption
         00:1d:43:32:b1:f4:8d:a9:11:aa:0d:e4:81:e9:78:c3:d0:98:
         af:bb:22:ad:b5:93:80:99:86:b1:7f:9d:a1:06:e2:ed:a2:12:
         29:c6:1d:1a:d2:05:39:00:c4:fe:58:75:ad:0f:7b:55:1d:5d:
         17:b8:10:b7:9a:de:b4:85:00:5c:23:64:19:90:bb:2d:87:7d:
         e4:7e:43:ee:89:01:78:8b:8b:38:cc:ee:1b:e7:44:03:01:8b:
         45:c2:00:22:a9:de:64:66:2b:b6:11:3d:19:20:72:e6:6a:0b:
         a9:fa:48:2a:58:cf:95:d2:6f:41:c9:4f:97:fb:02:0d:43:c4:
         81:49:c4:67:5a:7e:61:4c:ed:17:fd:08:7e:ce:d7:a5:55:43:
         d0:01:35:69:cd:76:7c:c2:18:89:bc:9f:1f:df:d6:40:a0:49:
         32:b3:ed:c0:ff:53:f9:ce:53:b8:b2:bd:dd:e7:74:73:aa:2b:
         9b:74:aa:76:49:b5:a4:bd:a6:d4:57:56:ad:56:38:6e:54:3e:
         bf:da:f1:54:0a:a2:05:88:f7:d8:51:77:0f:95:a3:20:ec:9f:
         06:05:7f:64:2e:b5:f3:71:70:fb:5f:3a:cd:ac:60:d7:74:c0:
         fe:6e:1c:0a:fa:58:62:20:7e:40:1c:7b:68:f9:d7:c7:4c:de:
         0b:29:24:24:2b
-----BEGIN CERTIFICATE-----
MIIDRDCCAisCAQEwDQYJKoZIhvcNAQELBQAwfzELMAkGA1UEBhMCQ0gxCzAJBgNV
BAgTAlZEMREwDwYDVQQHEwhMYXVzYW5uZTEQMA4GA1UEChMHSU1vdmllczELMAkG
A1UECxMCQ0ExEDAOBgNVBAMTB2ltb3ZpZXMxHzAdBgkqhkiG9w0BCQEWEGFkbWlu
QGltb3ZpZXMuY2gwHhcNMjExMTEzMTY1MDMzWhcNMjIxMTEzMTY1MDMzWjBQMQsw
CQYDVQQGEwJDSDELMAkGA1UECAwCVkQxEDAOBgNVBAoMB0lNb3ZpZXMxDDAKBgNV
BAsMA1dlYjEUMBIGA1UEAwwLd2ViLmltb3ZpZXMwggEiMA0GCSqGSIb3DQEBAQUA
A4IBDwAwggEKAoIBAQDTFjyyXSYoexgoUBAMKO72/1BB/uQWADjxf+0zvzPoXWdx
Zm9YdCqE3/1xwJM6FliwGZKP0FnTVPuBd2q3oCMejYEF+nlhRB5Pj09cI0wwQ4rq
LNBv6olM60Iqca/bgU8PFfg49FK5JhLSzpXUPGdIQAliY0Vh5uXd3xatk5ldvLa3
3SV4Hw0uMGhhlxN6wyPruEMdnBszuQX4KTVUA33Flyt2YjTX1xrBcZt8y6E187tT
eZtf86MkTS1LKr7/i2tvWZ1ilC23E/uRuiQOtsixf8qwCbWtd2DCa0fYMHPzyHGw
ifXhVTsBKurNt8ylfO5HYwgtiDxqGcOUgwO0DnXhAgMBAAEwDQYJKoZIhvcNAQEL
BQADggECAAAdQzKx9I2pEaoN5IHpeMPQmK+7Iq21k4CZhrF/naEG4u2iEinGHRrS
BTkAxP5Yda0Pe1UdXRe4ELea3rSFAFwjZBmQuy2HfeR+Q+6JAXiLizjM7hvnRAMB
i0XCACKp3mRmK7YRPRkgcuZqC6n6SCpYz5XSb0HJT5f7Ag1DxIFJxGdafmFM7Rf9
CH7O16VVQ9ABNWnNdnzCGIm8nx/f1kCgSTKz7cD/U/nOU7iyvd3ndHOqK5t0qnZJ
taS9ptRXVq1WOG5UPr/a8VQKogWI99hRdw+VoyDsnwYFf2QutfNxcPtfOs2sYNd0
wP5uHAr6WGIgfkAce2j518dM3gspJCQr
-----END CERTIFICATE-----
