Certificate:
    Data:
        Version: 1 (0x0)
        Serial Number: 2 (0x2)
        Signature Algorithm: sha256WithRSAEncryption
        Issuer: C=CH, ST=VD, L=Lausanne, O=IMovies, OU=CA, CN=imovies/emailAddress=admin@imovies.ch
        Validity
            Not Before: Nov  5 15:48:07 2021 GMT
            Not After : Nov  5 15:48:07 2022 GMT
        Subject: C=CH, ST=VD, O=IMovies, OU=Firewall, CN=firewall.imovies
        Subject Public Key Info:
            Public Key Algorithm: rsaEncryption
                RSA Public-Key: (1024 bit)
                Modulus:
                    00:b2:c6:ec:e7:2c:82:f7:25:fc:54:30:2b:63:a6:
                    09:ee:5f:9a:45:93:40:f9:10:9f:2d:20:b3:1d:0f:
                    f6:1d:d0:a2:73:34:46:7e:bf:eb:22:60:33:72:f1:
                    94:4c:f7:51:3d:52:4a:91:40:51:da:a3:77:31:b4:
                    d2:3b:79:19:f0:93:0c:98:27:16:13:df:a0:7f:dd:
                    ca:42:f7:34:08:2c:04:b2:56:3f:85:7a:9b:0a:b1:
                    42:bd:33:60:ac:85:e9:05:72:c2:8e:07:fe:9a:f1:
                    9b:0e:a3:b5:5c:0a:f4:74:3a:0c:26:e5:2f:f4:4b:
                    9e:d0:dc:6f:3f:11:db:a5:e9
                Exponent: 65537 (0x10001)
    Signature Algorithm: sha256WithRSAEncryption
         76:2d:f2:d9:00:17:76:2c:26:fc:50:b5:0b:d4:98:b1:d5:4a:
         6f:d5:ca:dd:a1:65:2e:09:00:67:de:66:16:d8:3a:74:15:03:
         33:c5:94:8e:83:c6:1a:18:c1:88:5f:f2:1f:04:80:41:27:68:
         a8:6a:a9:c5:22:e8:c6:a7:42:5a:be:7b:53:4b:d4:63:99:72:
         06:0f:f3:82:11:1c:d9:4b:f3:59:0a:88:39:d7:99:45:a3:31:
         f7:a9:e1:f7:9a:d6:94:e1:5c:95:92:2f:d6:45:47:0c:e4:64:
         8e:4a:82:ab:fc:5b:9e:4a:f6:c3:4a:f3:d9:48:28:bf:7e:b3:
         e3:8a
-----BEGIN CERTIFICATE-----
MIICSDCCAbECAQIwDQYJKoZIhvcNAQELBQAwfzELMAkGA1UEBhMCQ0gxCzAJBgNV
BAgTAlZEMREwDwYDVQQHEwhMYXVzYW5uZTEQMA4GA1UEChMHSU1vdmllczELMAkG
A1UECxMCQ0ExEDAOBgNVBAMTB2ltb3ZpZXMxHzAdBgkqhkiG9w0BCQEWEGFkbWlu
QGltb3ZpZXMuY2gwHhcNMjExMTA1MTU0ODA3WhcNMjIxMTA1MTU0ODA3WjBaMQsw
CQYDVQQGEwJDSDELMAkGA1UECAwCVkQxEDAOBgNVBAoMB0lNb3ZpZXMxETAPBgNV
BAsMCEZpcmV3YWxsMRkwFwYDVQQDDBBmaXJld2FsbC5pbW92aWVzMIGfMA0GCSqG
SIb3DQEBAQUAA4GNADCBiQKBgQCyxuznLIL3JfxUMCtjpgnuX5pFk0D5EJ8tILMd
D/Yd0KJzNEZ+v+siYDNy8ZRM91E9UkqRQFHao3cxtNI7eRnwkwyYJxYT36B/3cpC
9zQILASyVj+FepsKsUK9M2CshekFcsKOB/6a8ZsOo7VcCvR0Ogwm5S/0S57Q3G8/
Edul6QIDAQABMA0GCSqGSIb3DQEBCwUAA4GBAHYt8tkAF3YsJvxQtQvUmLHVSm/V
yt2hZS4JAGfeZhbYOnQVAzPFlI6DxhoYwYhf8h8EgEEnaKhqqcUi6ManQlq+e1NL
1GOZcgYP84IRHNlL81kKiDnXmUWjMfep4fea1pThXJWSL9ZFRwzkZI5Kgqv8W55K
9sNK89lIKL9+s+OK
-----END CERTIFICATE-----
