Certificate:
    Data:
        Version: 1 (0x0)
        Serial Number: 2 (0x2)
        Signature Algorithm: sha256WithRSAEncryption
        Issuer: C=CH, ST=VD, L=Lausanne, O=IMovies, OU=CA, CN=imovies/emailAddress=admin@imovies.ch
        Validity
            Not Before: Nov 13 16:50:35 2021 GMT
            Not After : Nov 13 16:50:35 2022 GMT
        Subject: C=CH, ST=VD, O=IMovies, OU=Firewall, CN=firewall.imovies
        Subject Public Key Info:
            Public Key Algorithm: rsaEncryption
                RSA Public-Key: (2048 bit)
                Modulus:
                    00:aa:03:00:4a:03:77:55:29:b9:81:cb:f6:27:b8:
                    8b:7a:e1:56:f0:7b:e8:22:8e:39:56:06:bd:ce:60:
                    c3:17:e6:57:8f:ab:2f:e8:ad:58:c9:54:8d:e4:86:
                    74:a9:a0:2f:e9:98:37:e9:53:7c:5a:f9:fa:fd:e1:
                    bd:fb:d1:f7:71:3a:41:6f:40:73:38:eb:e3:70:11:
                    ca:e8:58:ed:7c:ef:92:e0:eb:5b:3a:84:bf:13:cb:
                    58:be:85:15:71:84:cc:dd:ff:8b:56:89:29:c4:1b:
                    f5:40:5d:38:76:c2:b4:ba:43:5d:ec:bd:c7:bc:42:
                    18:44:28:28:d4:ed:e4:a5:fe:bd:00:c6:db:34:ee:
                    a3:02:02:96:53:65:5f:b7:4b:04:81:0c:cb:29:8e:
                    94:80:3f:04:f7:e8:4d:3c:f7:09:f0:31:11:d6:d6:
                    42:cd:db:7c:43:42:23:c5:d1:30:3a:d9:a9:e7:18:
                    4b:48:1b:65:ac:c5:2d:67:9c:b5:c7:8b:c8:59:d6:
                    0b:b8:60:0f:b1:0f:f7:47:00:26:b2:6d:1f:0d:af:
                    db:19:7a:17:db:9a:d3:60:32:b5:b9:3e:71:82:c9:
                    c6:ed:13:4b:67:95:0e:ad:2d:f6:70:98:d8:ae:1a:
                    dd:1b:a0:a0:65:2d:64:63:65:0c:73:d0:50:fe:7c:
                    7d:93
                Exponent: 65537 (0x10001)
    Signature Algorithm: sha256WithRSAEncryption
         00:fe:ed:70:68:52:f4:05:b4:86:82:fb:f1:06:46:1f:ce:98:
         d9:92:3a:46:2f:78:cc:5f:ab:8b:83:e8:c2:7e:0d:05:fc:5c:
         96:6e:10:68:73:0c:d2:78:87:4c:fe:e1:5f:30:f6:c5:f3:7e:
         e6:b8:0d:95:ec:f5:76:72:ef:4e:f6:46:31:58:d4:82:68:bd:
         42:9e:27:c0:a9:af:da:f3:ec:42:ba:16:0f:44:4a:b9:1d:f4:
         58:6d:a8:f1:28:22:3a:85:1a:c4:7a:8f:30:52:22:72:7d:3b:
         14:52:04:b2:53:a5:4a:10:d1:1b:26:9f:b1:f4:f3:91:4d:c0:
         6f:ba:14:e5:82:7d:3e:9f:02:50:3b:46:5b:6c:e7:25:50:13:
         f8:ee:f1:0b:61:7a:1b:83:23:8a:2f:09:eb:87:c1:f6:66:f8:
         2f:d0:78:25:2e:69:a8:60:70:5f:71:dc:83:d9:90:8a:98:d3:
         ca:67:9d:ba:06:f3:cf:ce:19:71:9e:92:02:df:0c:79:65:ff:
         99:bc:24:ac:6d:d7:ac:7f:80:96:38:57:c0:f5:ed:9a:e5:9e:
         5a:03:26:3f:9f:11:d5:80:db:90:23:a7:ea:02:0c:5d:62:1b:
         0e:c9:5f:e7:ab:31:ba:00:42:d9:f0:e0:72:d4:a6:3b:7e:c1:
         22:87:90:38:eb
-----BEGIN CERTIFICATE-----
MIIDTjCCAjUCAQIwDQYJKoZIhvcNAQELBQAwfzELMAkGA1UEBhMCQ0gxCzAJBgNV
BAgTAlZEMREwDwYDVQQHEwhMYXVzYW5uZTEQMA4GA1UEChMHSU1vdmllczELMAkG
A1UECxMCQ0ExEDAOBgNVBAMTB2ltb3ZpZXMxHzAdBgkqhkiG9w0BCQEWEGFkbWlu
QGltb3ZpZXMuY2gwHhcNMjExMTEzMTY1MDM1WhcNMjIxMTEzMTY1MDM1WjBaMQsw
CQYDVQQGEwJDSDELMAkGA1UECAwCVkQxEDAOBgNVBAoMB0lNb3ZpZXMxETAPBgNV
BAsMCEZpcmV3YWxsMRkwFwYDVQQDDBBmaXJld2FsbC5pbW92aWVzMIIBIjANBgkq
hkiG9w0BAQEFAAOCAQ8AMIIBCgKCAQEAqgMASgN3VSm5gcv2J7iLeuFW8HvoIo45
Vga9zmDDF+ZXj6sv6K1YyVSN5IZ0qaAv6Zg36VN8Wvn6/eG9+9H3cTpBb0BzOOvj
cBHK6FjtfO+S4OtbOoS/E8tYvoUVcYTM3f+LVokpxBv1QF04dsK0ukNd7L3HvEIY
RCgo1O3kpf69AMbbNO6jAgKWU2Vft0sEgQzLKY6UgD8E9+hNPPcJ8DER1tZCzdt8
Q0IjxdEwOtmp5xhLSBtlrMUtZ5y1x4vIWdYLuGAPsQ/3RwAmsm0fDa/bGXoX25rT
YDK1uT5xgsnG7RNLZ5UOrS32cJjYrhrdG6CgZS1kY2UMc9BQ/nx9kwIDAQABMA0G
CSqGSIb3DQEBCwUAA4IBAgAA/u1waFL0BbSGgvvxBkYfzpjZkjpGL3jMX6uLg+jC
fg0F/FyWbhBocwzSeIdM/uFfMPbF837muA2V7PV2cu9O9kYxWNSCaL1CnifAqa/a
8+xCuhYPREq5HfRYbajxKCI6hRrEeo8wUiJyfTsUUgSyU6VKENEbJp+x9PORTcBv
uhTlgn0+nwJQO0ZbbOclUBP47vELYXobgyOKLwnrh8H2Zvgv0HglLmmoYHBfcdyD
2ZCKmNPKZ526BvPPzhlxnpIC3wx5Zf+ZvCSsbdesf4CWOFfA9e2a5Z5aAyY/nxHV
gNuQI6fqAgxdYhsOyV/nqzG6AELZ8OBy1KY7fsEih5A46w==
-----END CERTIFICATE-----
