Certificate:
    Data:
        Version: 1 (0x0)
        Serial Number: 2 (0x2)
        Signature Algorithm: md5WithRSAEncryption
        Issuer: C=CH, ST=VD, L=Lausanne, O=IMovies, OU=CA, CN=imovies/emailAddress=admin@imovies.ch
        Validity
            Not Before: Nov  4 16:48:59 2021 GMT
            Not After : Nov  4 16:48:59 2022 GMT
        Subject: C=CH, ST=VD, O=IMovies, OU=Firewall, CN=firewall.imovies
        Subject Public Key Info:
            Public Key Algorithm: rsaEncryption
                RSA Public-Key: (1024 bit)
                Modulus:
                    00:dd:af:f3:e2:69:f3:33:36:b4:5d:34:35:56:7a:
                    8f:59:05:b4:4e:52:35:1e:84:ac:a2:07:92:05:09:
                    b1:44:41:c1:5a:e7:78:1f:0c:de:aa:5d:58:8a:93:
                    7a:c9:a3:a3:8e:60:25:c6:10:8d:86:18:89:a2:76:
                    b9:46:4a:40:3e:2c:e5:7f:ca:7e:20:af:72:3a:1f:
                    72:72:8f:c9:76:1d:a3:aa:77:cd:56:e0:4b:7f:2c:
                    ad:a1:7d:63:aa:35:87:9b:c6:d8:59:ae:92:c6:bf:
                    f4:44:a7:2f:28:b2:2e:66:d0:c3:e3:57:72:c7:5a:
                    d8:7c:fb:f9:75:5c:db:35:d1
                Exponent: 65537 (0x10001)
    Signature Algorithm: md5WithRSAEncryption
         33:12:fc:9e:d9:6e:52:8b:a7:3c:b2:8b:2d:98:ee:ab:1e:cc:
         bd:84:b1:39:02:9c:fa:9a:59:4b:52:d5:f9:f0:5b:17:01:d6:
         bb:c1:be:35:86:bf:e5:a3:6c:ef:39:26:20:3a:88:6c:26:9f:
         69:78:3a:d5:b1:74:fc:0d:d0:52:7b:5b:26:cd:fc:3d:72:95:
         cd:33:20:eb:a9:59:10:22:fd:91:d6:c6:d1:6e:20:58:e2:24:
         3f:0b:51:be:7e:e3:c4:ae:b6:e2:23:65:f4:36:31:d9:d9:ba:
         26:1a:c0:85:2d:11:64:f5:5e:34:9c:3d:13:c0:d3:47:f9:86:
         39:ef
-----BEGIN CERTIFICATE-----
MIICSDCCAbECAQIwDQYJKoZIhvcNAQEEBQAwfzELMAkGA1UEBhMCQ0gxCzAJBgNV
BAgTAlZEMREwDwYDVQQHEwhMYXVzYW5uZTEQMA4GA1UEChMHSU1vdmllczELMAkG
A1UECxMCQ0ExEDAOBgNVBAMTB2ltb3ZpZXMxHzAdBgkqhkiG9w0BCQEWEGFkbWlu
QGltb3ZpZXMuY2gwHhcNMjExMTA0MTY0ODU5WhcNMjIxMTA0MTY0ODU5WjBaMQsw
CQYDVQQGEwJDSDELMAkGA1UECAwCVkQxEDAOBgNVBAoMB0lNb3ZpZXMxETAPBgNV
BAsMCEZpcmV3YWxsMRkwFwYDVQQDDBBmaXJld2FsbC5pbW92aWVzMIGfMA0GCSqG
SIb3DQEBAQUAA4GNADCBiQKBgQDdr/PiafMzNrRdNDVWeo9ZBbROUjUehKyiB5IF
CbFEQcFa53gfDN6qXViKk3rJo6OOYCXGEI2GGImidrlGSkA+LOV/yn4gr3I6H3Jy
j8l2HaOqd81W4Et/LK2hfWOqNYebxthZrpLGv/REpy8osi5m0MPjV3LHWth8+/l1
XNs10QIDAQABMA0GCSqGSIb3DQEBBAUAA4GBADMS/J7ZblKLpzyyiy2Y7qsezL2E
sTkCnPqaWUtS1fnwWxcB1rvBvjWGv+WjbO85JiA6iGwmn2l4OtWxdPwN0FJ7WybN
/D1ylc0zIOupWRAi/ZHWxtFuIFjiJD8LUb5+48SutuIjZfQ2MdnZuiYawIUtEWT1
XjScPRPA00f5hjnv
-----END CERTIFICATE-----
