Certificate:
    Data:
        Version: 1 (0x0)
        Serial Number: 3 (0x3)
        Signature Algorithm: sha256WithRSAEncryption
        Issuer: C=CH, ST=VD, L=Lausanne, O=IMovies, OU=CA, CN=imovies/emailAddress=admin@imovies.ch
        Validity
            Not Before: Nov  5 15:48:08 2021 GMT
            Not After : Nov  5 15:48:08 2022 GMT
        Subject: C=CH, ST=VD, O=IMovies, OU=Server, CN=server.imovies
        Subject Public Key Info:
            Public Key Algorithm: rsaEncryption
                RSA Public-Key: (1024 bit)
                Modulus:
                    00:c4:58:41:d3:aa:1d:ae:48:07:e1:27:d9:45:36:
                    4f:e0:fe:4b:1c:e9:9e:f7:52:17:c6:20:b1:f1:0d:
                    c0:b5:28:a5:c1:16:f0:f0:81:f4:12:05:61:db:ed:
                    8e:25:dd:92:1b:64:e7:da:85:bb:f3:24:41:4b:9a:
                    e4:9a:31:aa:57:1f:d3:e9:fc:29:44:35:2c:ca:a5:
                    b6:90:49:24:7d:f3:06:5a:4a:c2:74:d0:e7:c1:d5:
                    b8:ac:dc:2d:4d:ce:d5:bc:f0:6c:0f:9f:4b:45:a8:
                    e6:73:96:6c:d2:ec:7d:ed:af:6f:62:b1:8c:83:10:
                    5b:03:28:46:62:b9:61:7c:25
                Exponent: 65537 (0x10001)
    Signature Algorithm: sha256WithRSAEncryption
         5e:ac:69:14:d3:7d:5b:05:8f:2d:df:f1:9f:ca:07:1f:c6:11:
         80:bf:e9:dd:ba:e6:dd:8f:28:82:42:ed:65:c1:af:d7:e6:8d:
         81:9c:b0:5e:eb:69:30:ab:18:89:a5:56:07:33:2f:ea:39:c0:
         41:fc:48:98:b8:de:35:d2:d3:5f:01:5e:23:46:86:e4:6f:dd:
         44:40:a3:35:22:ff:aa:5d:0e:85:32:a3:fa:f8:67:ab:82:8a:
         9f:88:58:34:78:5a:26:ea:08:5c:0e:6f:2f:48:28:db:60:c7:
         b6:e1:b7:18:49:3d:19:dc:59:d7:8c:f0:6d:16:8c:43:24:fc:
         1d:f2
-----BEGIN CERTIFICATE-----
MIICRDCCAa0CAQMwDQYJKoZIhvcNAQELBQAwfzELMAkGA1UEBhMCQ0gxCzAJBgNV
BAgTAlZEMREwDwYDVQQHEwhMYXVzYW5uZTEQMA4GA1UEChMHSU1vdmllczELMAkG
A1UECxMCQ0ExEDAOBgNVBAMTB2ltb3ZpZXMxHzAdBgkqhkiG9w0BCQEWEGFkbWlu
QGltb3ZpZXMuY2gwHhcNMjExMTA1MTU0ODA4WhcNMjIxMTA1MTU0ODA4WjBWMQsw
CQYDVQQGEwJDSDELMAkGA1UECAwCVkQxEDAOBgNVBAoMB0lNb3ZpZXMxDzANBgNV
BAsMBlNlcnZlcjEXMBUGA1UEAwwOc2VydmVyLmltb3ZpZXMwgZ8wDQYJKoZIhvcN
AQEBBQADgY0AMIGJAoGBAMRYQdOqHa5IB+En2UU2T+D+SxzpnvdSF8YgsfENwLUo
pcEW8PCB9BIFYdvtjiXdkhtk59qFu/MkQUua5Joxqlcf0+n8KUQ1LMqltpBJJH3z
BlpKwnTQ58HVuKzcLU3O1bzwbA+fS0Wo5nOWbNLsfe2vb2KxjIMQWwMoRmK5YXwl
AgMBAAEwDQYJKoZIhvcNAQELBQADgYEAXqxpFNN9WwWPLd/xn8oHH8YRgL/p3brm
3Y8ogkLtZcGv1+aNgZywXutpMKsYiaVWBzMv6jnAQfxImLjeNdLTXwFeI0aG5G/d
RECjNSL/ql0OhTKj+vhnq4KKn4hYNHhaJuoIXA5vL0go22DHtuG3GEk9GdxZ14zw
bRaMQyT8HfI=
-----END CERTIFICATE-----
