Certificate:
    Data:
        Version: 1 (0x0)
        Serial Number: 3 (0x3)
        Signature Algorithm: md5WithRSAEncryption
        Issuer: C=CH, ST=VD, L=Lausanne, O=IMovies, OU=CA, CN=imovies/emailAddress=admin@imovies.ch
        Validity
            Not Before: Nov  4 16:49:00 2021 GMT
            Not After : Nov  4 16:49:00 2022 GMT
        Subject: C=CH, ST=VD, O=IMovies, OU=Server, CN=server.imovies
        Subject Public Key Info:
            Public Key Algorithm: rsaEncryption
                RSA Public-Key: (1024 bit)
                Modulus:
                    00:c4:79:90:19:85:44:7e:0f:af:6f:77:67:d9:af:
                    1d:65:e3:2a:e5:47:29:a0:cf:dd:e9:73:bd:a9:1a:
                    df:43:90:4f:b9:7d:5e:84:b1:15:5b:9c:5d:9a:e3:
                    e6:8b:b8:07:96:96:23:86:1a:af:25:8b:53:e5:16:
                    cd:67:44:12:ef:d2:43:01:6b:86:4f:c6:a2:5c:e9:
                    e3:0c:6e:65:df:da:27:c2:38:ad:87:62:47:6f:71:
                    dd:3f:0f:b1:8e:cd:eb:59:99:45:f5:10:89:b6:18:
                    6e:62:70:17:d0:c8:98:f1:57:cc:b2:0d:5f:42:9b:
                    80:90:43:91:9b:ed:0e:2f:3b
                Exponent: 65537 (0x10001)
    Signature Algorithm: md5WithRSAEncryption
         47:94:28:f0:4f:b5:5c:90:39:1b:ac:54:2d:3f:ad:57:a4:f6:
         57:05:06:8d:4f:0c:9b:63:7a:96:fb:b9:cf:7a:62:e8:1c:24:
         4d:6a:78:4c:4a:2f:68:b8:0a:df:01:24:19:a7:18:d9:76:e3:
         29:b3:5e:7b:88:0e:db:b8:7c:b9:f1:f2:79:8b:f1:a5:68:5a:
         10:85:c1:b2:5c:37:c7:57:ae:42:33:3c:18:70:3f:25:c1:f3:
         40:fc:c6:89:55:f1:6d:02:00:69:46:06:84:fd:8b:5d:b0:d6:
         87:e1:ed:bc:6a:de:7d:a5:e3:c6:9d:71:f4:ae:fe:35:c8:3f:
         c2:cc
-----BEGIN CERTIFICATE-----
MIICRDCCAa0CAQMwDQYJKoZIhvcNAQEEBQAwfzELMAkGA1UEBhMCQ0gxCzAJBgNV
BAgTAlZEMREwDwYDVQQHEwhMYXVzYW5uZTEQMA4GA1UEChMHSU1vdmllczELMAkG
A1UECxMCQ0ExEDAOBgNVBAMTB2ltb3ZpZXMxHzAdBgkqhkiG9w0BCQEWEGFkbWlu
QGltb3ZpZXMuY2gwHhcNMjExMTA0MTY0OTAwWhcNMjIxMTA0MTY0OTAwWjBWMQsw
CQYDVQQGEwJDSDELMAkGA1UECAwCVkQxEDAOBgNVBAoMB0lNb3ZpZXMxDzANBgNV
BAsMBlNlcnZlcjEXMBUGA1UEAwwOc2VydmVyLmltb3ZpZXMwgZ8wDQYJKoZIhvcN
AQEBBQADgY0AMIGJAoGBAMR5kBmFRH4Pr293Z9mvHWXjKuVHKaDP3elzvaka30OQ
T7l9XoSxFVucXZrj5ou4B5aWI4YaryWLU+UWzWdEEu/SQwFrhk/Golzp4wxuZd/a
J8I4rYdiR29x3T8PsY7N61mZRfUQibYYbmJwF9DImPFXzLINX0KbgJBDkZvtDi87
AgMBAAEwDQYJKoZIhvcNAQEEBQADgYEAR5Qo8E+1XJA5G6xULT+tV6T2VwUGjU8M
m2N6lvu5z3pi6BwkTWp4TEovaLgK3wEkGacY2XbjKbNee4gO27h8ufHyeYvxpWha
EIXBslw3x1euQjM8GHA/JcHzQPzGiVXxbQIAaUYGhP2LXbDWh+HtvGrefaXjxp1x
9K7+Ncg/wsw=
-----END CERTIFICATE-----
