Certificate:
    Data:
        Version: 1 (0x0)
        Serial Number: 5 (0x5)
        Signature Algorithm: md5WithRSAEncryption
        Issuer: C=CH, ST=VD, L=Lausanne, O=IMovies, OU=CA, CN=imovies/emailAddress=admin@imovies.ch
        Validity
            Not Before: Nov  4 16:49:02 2021 GMT
            Not After : Nov  4 16:49:02 2022 GMT
        Subject: C=CH, ST=VD, O=IMovies, OU=Backup, CN=backup.imovies
        Subject Public Key Info:
            Public Key Algorithm: rsaEncryption
                RSA Public-Key: (1024 bit)
                Modulus:
                    00:a5:c1:51:cb:b3:cc:ea:b2:38:2e:f0:59:e7:b9:
                    48:a6:c3:af:f6:29:31:97:4d:4c:49:b3:e8:05:52:
                    4f:37:bb:80:cd:c8:2b:5a:25:44:ea:1b:76:04:0f:
                    ea:d4:70:bf:e8:73:f6:f6:7b:01:fd:ca:2e:bf:a1:
                    2c:8a:a1:01:e0:50:06:0e:3d:3f:38:fb:f2:d4:65:
                    71:8d:b8:df:2d:4a:33:91:7c:3d:7c:b6:aa:4c:30:
                    61:a2:c3:49:bc:f0:ff:01:00:ac:63:c0:96:fe:48:
                    32:9a:9c:f7:b9:69:d5:2d:4f:92:34:7c:b2:a1:fd:
                    d5:21:f1:a0:68:ec:ba:26:dd
                Exponent: 65537 (0x10001)
    Signature Algorithm: md5WithRSAEncryption
         18:90:fe:de:56:38:d8:e5:e9:be:4b:c6:66:c5:30:5b:ba:66:
         10:45:6c:6b:39:6e:33:d6:ad:bd:de:e1:1a:c7:04:49:69:13:
         19:fc:73:07:5b:2d:07:39:a8:d5:fe:18:4a:4d:05:74:02:f7:
         6e:d7:18:aa:0a:d4:b5:fd:75:ac:0f:08:f1:ec:5f:44:38:89:
         8b:5f:e8:12:41:22:ac:b0:3c:6f:4e:21:c3:01:ba:63:be:5b:
         59:f2:c2:26:c1:cc:e7:df:d2:26:8e:c0:d7:20:92:f6:43:96:
         47:77:93:1b:09:cc:da:3a:46:64:04:0b:2a:93:99:ce:02:58:
         8d:96
-----BEGIN CERTIFICATE-----
MIICRDCCAa0CAQUwDQYJKoZIhvcNAQEEBQAwfzELMAkGA1UEBhMCQ0gxCzAJBgNV
BAgTAlZEMREwDwYDVQQHEwhMYXVzYW5uZTEQMA4GA1UEChMHSU1vdmllczELMAkG
A1UECxMCQ0ExEDAOBgNVBAMTB2ltb3ZpZXMxHzAdBgkqhkiG9w0BCQEWEGFkbWlu
QGltb3ZpZXMuY2gwHhcNMjExMTA0MTY0OTAyWhcNMjIxMTA0MTY0OTAyWjBWMQsw
CQYDVQQGEwJDSDELMAkGA1UECAwCVkQxEDAOBgNVBAoMB0lNb3ZpZXMxDzANBgNV
BAsMBkJhY2t1cDEXMBUGA1UEAwwOYmFja3VwLmltb3ZpZXMwgZ8wDQYJKoZIhvcN
AQEBBQADgY0AMIGJAoGBAKXBUcuzzOqyOC7wWee5SKbDr/YpMZdNTEmz6AVSTze7
gM3IK1olROobdgQP6tRwv+hz9vZ7Af3KLr+hLIqhAeBQBg49Pzj78tRlcY243y1K
M5F8PXy2qkwwYaLDSbzw/wEArGPAlv5IMpqc97lp1S1PkjR8sqH91SHxoGjsuibd
AgMBAAEwDQYJKoZIhvcNAQEEBQADgYEAGJD+3lY42OXpvkvGZsUwW7pmEEVsazlu
M9atvd7hGscESWkTGfxzB1stBzmo1f4YSk0FdAL3btcYqgrUtf11rA8I8exfRDiJ
i1/oEkEirLA8b04hwwG6Y75bWfLCJsHM59/SJo7A1yCS9kOWR3eTGwnM2jpGZAQL
KpOZzgJYjZY=
-----END CERTIFICATE-----
