Certificate:
    Data:
        Version: 1 (0x0)
        Serial Number: 5 (0x5)
        Signature Algorithm: sha256WithRSAEncryption
        Issuer: C=CH, ST=VD, L=Lausanne, O=IMovies, OU=CA, CN=imovies/emailAddress=admin@imovies.ch
        Validity
            Not Before: Nov 13 16:50:38 2021 GMT
            Not After : Nov 13 16:50:38 2022 GMT
        Subject: C=CH, ST=VD, O=IMovies, OU=Backup, CN=backup.imovies
        Subject Public Key Info:
            Public Key Algorithm: rsaEncryption
                RSA Public-Key: (2048 bit)
                Modulus:
                    00:d6:83:54:b1:21:75:d9:4d:dc:23:58:5b:9c:eb:
                    80:3f:92:1c:11:61:35:24:c2:8e:06:a5:5d:d9:f0:
                    6e:87:22:25:cf:28:d1:b8:0d:15:34:66:97:b7:4f:
                    e4:c0:1b:f2:e7:9e:a8:1c:60:36:f3:df:c0:99:63:
                    40:f3:9e:6a:ee:03:25:ad:0f:67:0e:21:71:4b:6f:
                    e1:6e:51:ea:05:b9:25:47:28:2b:0c:b1:df:fc:27:
                    03:35:d9:be:79:47:c4:06:0b:f1:15:b2:f0:23:c5:
                    29:11:c5:39:13:c0:32:9a:38:0e:62:c4:82:26:a1:
                    46:4e:d9:08:0f:04:5d:5e:e3:ed:64:1f:66:d6:10:
                    ba:c9:f9:35:73:55:2e:5f:44:02:05:0e:36:f4:17:
                    54:54:fa:86:01:fa:6b:f4:a8:47:7a:e5:3a:83:60:
                    da:8a:91:55:a8:40:64:b9:89:46:4e:da:41:e2:3c:
                    ba:80:74:71:c1:38:76:65:40:f1:ca:eb:88:cc:fc:
                    e4:f2:4f:f3:28:cc:f6:ba:21:49:e3:f2:aa:e3:9e:
                    3e:83:4a:3b:0c:2e:77:6d:76:48:16:1d:97:19:11:
                    f0:25:3c:88:8e:bf:56:68:19:39:28:12:b1:7b:79:
                    b8:da:05:01:23:13:51:8e:84:9d:d6:10:cb:ba:7a:
                    77:b5
                Exponent: 65537 (0x10001)
    Signature Algorithm: sha256WithRSAEncryption
         01:40:ec:24:f3:34:e6:6f:23:7f:43:54:35:9e:83:76:84:f7:
         a5:e9:5f:ff:0c:4e:6b:db:40:23:4e:e5:62:92:65:31:cf:48:
         be:47:c2:42:6a:83:7c:0d:ed:eb:d1:f6:8e:67:ff:fd:20:5c:
         a7:0e:c1:0b:8a:73:fe:c9:fe:d7:27:f3:e7:e1:51:ca:55:13:
         f0:f9:48:96:b3:98:76:b4:88:40:1e:73:0a:67:d0:f0:5f:dc:
         5d:bb:c0:61:76:b7:4e:a3:48:c7:1e:51:9c:99:f9:65:02:d4:
         b7:42:86:b5:59:bf:c9:3f:e2:fc:b6:21:39:a0:d9:c0:49:26:
         44:81:0d:cb:07:4c:07:cd:8c:ca:43:7d:97:80:b9:5c:d4:41:
         f5:4c:db:43:44:35:e3:73:54:d4:40:1c:9c:98:d3:32:16:59:
         96:22:cc:fd:60:46:8e:aa:e0:06:f3:15:b0:95:1a:e4:48:f8:
         73:05:0b:14:7d:a5:26:97:72:96:3c:44:95:a9:ac:61:8c:f8:
         42:3f:27:f9:06:44:5d:6f:8e:4d:24:c4:b5:8e:61:b9:09:9c:
         90:95:54:f8:4d:0c:d0:e6:03:38:ee:75:0d:bc:0b:31:6a:9f:
         80:40:f7:79:8e:76:bf:33:bd:93:da:79:cd:0f:e4:ef:fd:5b:
         28:21:be:dc:ee
-----BEGIN CERTIFICATE-----
MIIDSjCCAjECAQUwDQYJKoZIhvcNAQELBQAwfzELMAkGA1UEBhMCQ0gxCzAJBgNV
BAgTAlZEMREwDwYDVQQHEwhMYXVzYW5uZTEQMA4GA1UEChMHSU1vdmllczELMAkG
A1UECxMCQ0ExEDAOBgNVBAMTB2ltb3ZpZXMxHzAdBgkqhkiG9w0BCQEWEGFkbWlu
QGltb3ZpZXMuY2gwHhcNMjExMTEzMTY1MDM4WhcNMjIxMTEzMTY1MDM4WjBWMQsw
CQYDVQQGEwJDSDELMAkGA1UECAwCVkQxEDAOBgNVBAoMB0lNb3ZpZXMxDzANBgNV
BAsMBkJhY2t1cDEXMBUGA1UEAwwOYmFja3VwLmltb3ZpZXMwggEiMA0GCSqGSIb3
DQEBAQUAA4IBDwAwggEKAoIBAQDWg1SxIXXZTdwjWFuc64A/khwRYTUkwo4GpV3Z
8G6HIiXPKNG4DRU0Zpe3T+TAG/LnnqgcYDbz38CZY0DznmruAyWtD2cOIXFLb+Fu
UeoFuSVHKCsMsd/8JwM12b55R8QGC/EVsvAjxSkRxTkTwDKaOA5ixIImoUZO2QgP
BF1e4+1kH2bWELrJ+TVzVS5fRAIFDjb0F1RU+oYB+mv0qEd65TqDYNqKkVWoQGS5
iUZO2kHiPLqAdHHBOHZlQPHK64jM/OTyT/MozPa6IUnj8qrjnj6DSjsMLndtdkgW
HZcZEfAlPIiOv1ZoGTkoErF7ebjaBQEjE1GOhJ3WEMu6ene1AgMBAAEwDQYJKoZI
hvcNAQELBQADggECAAFA7CTzNOZvI39DVDWeg3aE96XpX/8MTmvbQCNO5WKSZTHP
SL5HwkJqg3wN7evR9o5n//0gXKcOwQuKc/7J/tcn8+fhUcpVE/D5SJazmHa0iEAe
cwpn0PBf3F27wGF2t06jSMceUZyZ+WUC1LdChrVZv8k/4vy2ITmg2cBJJkSBDcsH
TAfNjMpDfZeAuVzUQfVM20NENeNzVNRAHJyY0zIWWZYizP1gRo6q4AbzFbCVGuRI
+HMFCxR9pSaXcpY8RJWprGGM+EI/J/kGRF1vjk0kxLWOYbkJnJCVVPhNDNDmAzju
dQ28CzFqn4BA93mOdr8zvZPaec0P5O/9Wyghvtzu
-----END CERTIFICATE-----
