Certificate:
    Data:
        Version: 3 (0x2)
        Serial Number: 6 (0x6)
        Signature Algorithm: sha256WithRSAEncryption
        Issuer: C=CH, ST=VD, L=Lausanne, O=IMovies, OU=CA, CN=imovies/emailAddress=admin@imovies.ch
        Validity
            Not Before: Nov 13 16:50:39 2021 GMT
            Not After : Nov 13 16:50:39 2022 GMT
        Subject: C=CH, ST=VD, O=IMovies, OU=Intermediate, CN=caserver.imovies
        Subject Public Key Info:
            Public Key Algorithm: rsaEncryption
                RSA Public-Key: (2048 bit)
                Modulus:
                    00:b2:bd:e0:48:78:ac:a0:a7:f4:7a:ff:ba:19:ab:
                    c0:86:4a:1f:50:aa:44:0f:b9:fd:e8:4c:ca:c2:18:
                    b6:bb:03:94:11:b2:46:ef:31:59:f9:44:fb:df:65:
                    34:d3:83:11:71:9b:b7:b6:6e:79:0d:38:b9:71:ac:
                    19:4c:cb:13:7c:b1:f9:bd:f4:dd:05:51:c4:1f:5d:
                    2a:6f:e6:86:5c:c6:a2:8a:54:56:cc:8c:5d:8f:d3:
                    e1:12:2b:8c:8d:97:56:a7:1a:63:d8:11:06:74:18:
                    48:fa:40:3a:e2:0e:08:9f:f0:a0:85:9f:e1:b9:82:
                    cb:5a:96:27:38:38:cb:37:fb:1f:ba:67:74:dc:e6:
                    f6:f8:86:25:7b:01:bd:48:18:8d:61:fd:3b:2a:b3:
                    da:c0:0c:09:40:68:50:c9:e6:9d:c3:1d:92:b8:88:
                    c8:07:1e:91:ba:70:c4:70:35:50:8e:ef:1b:12:e3:
                    eb:43:49:f2:c9:da:d6:0d:94:0c:21:a5:b9:70:12:
                    f1:40:87:3b:ff:3d:33:48:d1:68:3a:f8:5a:17:fe:
                    e1:8f:e0:b2:8b:cf:e6:7f:9d:b3:09:ac:46:2f:d9:
                    fd:2f:a9:07:82:b3:fb:b3:ad:cb:18:dc:18:07:72:
                    c5:fd:51:df:ce:69:cb:42:dd:a2:86:cb:df:f0:e8:
                    f2:13
                Exponent: 65537 (0x10001)
        X509v3 extensions:
            X509v3 Subject Key Identifier: 
                77:CE:92:61:8D:1E:0E:AD:B9:22:12:73:3A:CC:39:07:CD:30:17:1B
            X509v3 Authority Key Identifier: 
                keyid:D0:48:32:6D:BA:61:89:94:8F:CE:1C:3C:C6:E8:9C:7E:01:D4:7C:1C

            X509v3 Basic Constraints: critical
                CA:TRUE, pathlen:0
            X509v3 Key Usage: critical
                Digital Signature, Certificate Sign, CRL Sign
    Signature Algorithm: sha256WithRSAEncryption
         01:3b:a4:38:48:2a:1f:0c:89:a2:c6:e9:cf:f2:27:41:f1:53:
         10:be:a7:28:5e:e0:01:25:e2:4d:59:03:62:20:42:c1:56:9a:
         2e:1d:c1:dd:e4:cd:5a:83:c1:86:81:33:28:38:47:db:82:0d:
         7c:86:fd:f5:fa:9f:03:c7:fa:d2:e9:7f:89:ff:33:3f:97:1d:
         47:38:15:d7:68:44:69:66:88:bb:a0:d2:c8:fa:dd:da:b8:8b:
         21:9d:d2:6c:e7:0f:7f:c6:7b:7b:9a:b3:ea:11:76:ff:5b:ec:
         32:1e:22:53:5e:50:aa:c7:72:7d:85:fd:de:df:f7:20:b6:f1:
         5b:68:7a:59:e3:b2:f7:04:7c:2e:5a:eb:7e:ec:42:6e:33:c0:
         7d:c0:70:74:45:99:ca:f4:2d:d6:a5:9e:d0:b5:ad:af:c5:0c:
         46:88:b1:10:fe:a7:6b:ab:bc:50:9e:37:4c:3b:1d:6f:46:7c:
         57:e2:df:5f:4d:92:70:d9:33:2c:b6:43:37:50:f8:c6:28:51:
         3b:f1:21:e2:13:81:37:30:86:5b:30:68:d1:7b:08:20:73:75:
         52:0d:a9:3b:52:ea:3e:12:ee:33:4a:81:a6:f3:9f:5a:f6:95:
         c0:e4:ef:56:12:8e:05:ca:b8:06:65:2e:42:21:d1:da:2c:97:
         f4:c0:51:1b:b6
-----BEGIN CERTIFICATE-----
MIIDvzCCAqagAwIBAgIBBjANBgkqhkiG9w0BAQsFADB/MQswCQYDVQQGEwJDSDEL
MAkGA1UECBMCVkQxETAPBgNVBAcTCExhdXNhbm5lMRAwDgYDVQQKEwdJTW92aWVz
MQswCQYDVQQLEwJDQTEQMA4GA1UEAxMHaW1vdmllczEfMB0GCSqGSIb3DQEJARYQ
YWRtaW5AaW1vdmllcy5jaDAeFw0yMTExMTMxNjUwMzlaFw0yMjExMTMxNjUwMzla
MF4xCzAJBgNVBAYTAkNIMQswCQYDVQQIEwJWRDEQMA4GA1UEChMHSU1vdmllczEV
MBMGA1UECxMMSW50ZXJtZWRpYXRlMRkwFwYDVQQDExBjYXNlcnZlci5pbW92aWVz
MIIBIjANBgkqhkiG9w0BAQEFAAOCAQ8AMIIBCgKCAQEAsr3gSHisoKf0ev+6GavA
hkofUKpED7n96EzKwhi2uwOUEbJG7zFZ+UT732U004MRcZu3tm55DTi5cawZTMsT
fLH5vfTdBVHEH10qb+aGXMaiilRWzIxdj9PhEiuMjZdWpxpj2BEGdBhI+kA64g4I
n/CghZ/huYLLWpYnODjLN/sfumd03Ob2+IYlewG9SBiNYf07KrPawAwJQGhQyead
wx2SuIjIBx6RunDEcDVQju8bEuPrQ0nyydrWDZQMIaW5cBLxQIc7/z0zSNFoOvha
F/7hj+Cyi8/mf52zCaxGL9n9L6kHgrP7s63LGNwYB3LF/VHfzmnLQt2ihsvf8Ojy
EwIDAQABo2YwZDAdBgNVHQ4EFgQUd86SYY0eDq25IhJzOsw5B80wFxswHwYDVR0j
BBgwFoAU0EgybbphiZSPzhw8xuicfgHUfBwwEgYDVR0TAQH/BAgwBgEB/wIBADAO
BgNVHQ8BAf8EBAMCAYYwDQYJKoZIhvcNAQELBQADggECAAE7pDhIKh8MiaLG6c/y
J0HxUxC+pyhe4AEl4k1ZA2IgQsFWmi4dwd3kzVqDwYaBMyg4R9uCDXyG/fX6nwPH
+tLpf4n/Mz+XHUc4FddoRGlmiLug0sj63dq4iyGd0mznD3/Ge3uas+oRdv9b7DIe
IlNeUKrHcn2F/d7f9yC28VtoelnjsvcEfC5a637sQm4zwH3AcHRFmcr0LdalntC1
ra/FDEaIsRD+p2urvFCeN0w7HW9GfFfi319NknDZMyy2QzdQ+MYoUTvxIeITgTcw
hlswaNF7CCBzdVINqTtS6j4S7jNKgabzn1r2lcDk71YSjgXKuAZlLkIh0dosl/TA
URu2
-----END CERTIFICATE-----
