Certificate:
    Data:
        Version: 1 (0x0)
        Serial Number: 1 (0x1)
        Signature Algorithm: sha256WithRSAEncryption
        Issuer: C=CH, ST=VD, L=Lausanne, O=IMovies, OU=CA, CN=imovies/emailAddress=admin@imovies.ch
        Validity
            Not Before: Nov  5 15:48:05 2021 GMT
            Not After : Nov  5 15:48:05 2022 GMT
        Subject: C=CH, ST=VD, O=IMovies, OU=Web, CN=web.imovies
        Subject Public Key Info:
            Public Key Algorithm: rsaEncryption
                RSA Public-Key: (1024 bit)
                Modulus:
                    00:b6:a1:46:84:79:c6:8e:f0:db:14:34:21:f3:53:
                    a6:b9:3d:7a:35:ba:09:27:d8:17:14:26:56:63:f9:
                    79:2f:ce:bb:d0:dc:5f:fc:e9:5d:92:e0:22:65:98:
                    92:86:2d:d7:a2:cf:46:00:b9:95:25:24:cf:c7:ff:
                    29:83:1e:7c:9b:1c:cb:b8:71:b5:a7:ac:7e:07:84:
                    d7:d6:76:44:78:2b:31:91:4e:11:90:56:37:38:44:
                    14:9a:96:f8:44:06:35:b9:21:89:4f:de:ee:b2:08:
                    1d:f7:87:4c:74:17:b5:b1:b1:79:fc:65:2b:06:87:
                    27:d3:42:f5:7d:a7:be:46:4f
                Exponent: 65537 (0x10001)
    Signature Algorithm: sha256WithRSAEncryption
         04:f8:32:a0:9c:13:82:85:44:6f:4c:ab:bd:84:bb:6b:71:f0:
         95:be:1c:dc:ec:4b:88:cd:d5:15:01:8f:58:62:4b:4c:8f:c9:
         9d:1e:3f:fd:8f:fb:6b:4c:54:25:12:5f:8e:12:1c:8f:73:cf:
         9b:c0:2c:de:47:fd:fb:3e:07:67:7a:bf:35:93:e1:4f:45:a7:
         a4:6a:70:c1:09:5c:34:f0:0f:2d:53:23:c0:2f:88:a3:9d:28:
         43:28:51:5c:3a:12:08:ff:5d:c0:07:87:9c:42:cf:d5:02:13:
         49:69:16:2b:f7:ff:8a:46:43:56:51:10:82:bf:68:5b:d8:55:
         78:85
-----BEGIN CERTIFICATE-----
MIICPjCCAacCAQEwDQYJKoZIhvcNAQELBQAwfzELMAkGA1UEBhMCQ0gxCzAJBgNV
BAgTAlZEMREwDwYDVQQHEwhMYXVzYW5uZTEQMA4GA1UEChMHSU1vdmllczELMAkG
A1UECxMCQ0ExEDAOBgNVBAMTB2ltb3ZpZXMxHzAdBgkqhkiG9w0BCQEWEGFkbWlu
QGltb3ZpZXMuY2gwHhcNMjExMTA1MTU0ODA1WhcNMjIxMTA1MTU0ODA1WjBQMQsw
CQYDVQQGEwJDSDELMAkGA1UECAwCVkQxEDAOBgNVBAoMB0lNb3ZpZXMxDDAKBgNV
BAsMA1dlYjEUMBIGA1UEAwwLd2ViLmltb3ZpZXMwgZ8wDQYJKoZIhvcNAQEBBQAD
gY0AMIGJAoGBALahRoR5xo7w2xQ0IfNTprk9ejW6CSfYFxQmVmP5eS/Ou9DcX/zp
XZLgImWYkoYt16LPRgC5lSUkz8f/KYMefJscy7hxtaesfgeE19Z2RHgrMZFOEZBW
NzhEFJqW+EQGNbkhiU/e7rIIHfeHTHQXtbGxefxlKwaHJ9NC9X2nvkZPAgMBAAEw
DQYJKoZIhvcNAQELBQADgYEABPgyoJwTgoVEb0yrvYS7a3Hwlb4c3OxLiM3VFQGP
WGJLTI/JnR4//Y/7a0xUJRJfjhIcj3PPm8As3kf9+z4HZ3q/NZPhT0WnpGpwwQlc
NPAPLVMjwC+Io50oQyhRXDoSCP9dwAeHnELP1QITSWkWK/f/ikZDVlEQgr9oW9hV
eIU=
-----END CERTIFICATE-----
