Certificate:
    Data:
        Version: 1 (0x0)
        Serial Number: 3 (0x3)
        Signature Algorithm: md5WithRSAEncryption
        Issuer: C=CH, ST=VD, L=Lausanne, O=IMovies, OU=CA, CN=imovies/emailAddress=admin@imovies.ch
        Validity
            Not Before: Nov  5 11:05:11 2021 GMT
            Not After : Nov  5 11:05:11 2022 GMT
        Subject: C=CH, ST=VD, O=IMovies, OU=Server, CN=server.imovies
        Subject Public Key Info:
            Public Key Algorithm: rsaEncryption
                RSA Public-Key: (1024 bit)
                Modulus:
                    00:bd:d3:18:a6:00:01:e5:e0:94:56:6c:7a:32:06:
                    f5:6c:14:26:d7:c8:58:07:61:6a:a5:3e:92:02:d8:
                    be:66:65:69:4f:91:ce:5a:7f:79:44:54:97:f1:e5:
                    3a:fb:6c:90:6d:b1:e1:fc:53:d2:83:a2:12:a1:05:
                    1e:ae:d5:01:a3:85:7b:6b:b6:c9:1d:40:cf:0c:5d:
                    77:b4:2d:51:b4:d6:53:99:be:1a:60:f7:e2:3b:52:
                    2a:50:39:06:9b:a2:89:72:70:74:a7:08:30:25:4a:
                    85:77:32:f0:85:09:9a:a6:d4:b7:25:4f:29:7f:82:
                    0f:7f:60:e1:91:3f:dc:c1:93
                Exponent: 65537 (0x10001)
    Signature Algorithm: md5WithRSAEncryption
         47:f0:da:a9:02:05:12:00:10:b0:27:1f:de:b5:9a:ef:eb:d8:
         94:93:0f:0f:7c:c1:52:8f:88:89:ae:54:f7:06:b9:63:b5:74:
         8f:ec:f4:70:5d:58:91:fb:cf:21:e9:4a:fb:67:57:de:9c:f9:
         84:8e:34:9b:51:ce:b5:c5:fb:ae:9e:6c:31:6e:f0:87:50:85:
         2d:78:5c:ff:03:b6:7b:8e:08:56:47:36:e4:7c:5c:97:fa:18:
         73:17:26:f8:97:97:b5:f7:d2:c3:b2:fe:17:28:20:d3:d0:5e:
         9e:73:2a:af:e5:47:2b:8f:9d:bd:72:62:7e:b0:24:93:f2:df:
         c9:1d
-----BEGIN CERTIFICATE-----
MIICRDCCAa0CAQMwDQYJKoZIhvcNAQEEBQAwfzELMAkGA1UEBhMCQ0gxCzAJBgNV
BAgTAlZEMREwDwYDVQQHEwhMYXVzYW5uZTEQMA4GA1UEChMHSU1vdmllczELMAkG
A1UECxMCQ0ExEDAOBgNVBAMTB2ltb3ZpZXMxHzAdBgkqhkiG9w0BCQEWEGFkbWlu
QGltb3ZpZXMuY2gwHhcNMjExMTA1MTEwNTExWhcNMjIxMTA1MTEwNTExWjBWMQsw
CQYDVQQGEwJDSDELMAkGA1UECAwCVkQxEDAOBgNVBAoMB0lNb3ZpZXMxDzANBgNV
BAsMBlNlcnZlcjEXMBUGA1UEAwwOc2VydmVyLmltb3ZpZXMwgZ8wDQYJKoZIhvcN
AQEBBQADgY0AMIGJAoGBAL3TGKYAAeXglFZsejIG9WwUJtfIWAdhaqU+kgLYvmZl
aU+Rzlp/eURUl/HlOvtskG2x4fxT0oOiEqEFHq7VAaOFe2u2yR1Azwxdd7QtUbTW
U5m+GmD34jtSKlA5BpuiiXJwdKcIMCVKhXcy8IUJmqbUtyVPKX+CD39g4ZE/3MGT
AgMBAAEwDQYJKoZIhvcNAQEEBQADgYEAR/DaqQIFEgAQsCcf3rWa7+vYlJMPD3zB
Uo+Iia5U9wa5Y7V0j+z0cF1YkfvPIelK+2dX3pz5hI40m1HOtcX7rp5sMW7wh1CF
LXhc/wO2e44IVkc25Hxcl/oYcxcm+JeXtffSw7L+Fygg09BennMqr+VHK4+dvXJi
frAkk/LfyR0=
-----END CERTIFICATE-----
