Certificate:
    Data:
        Version: 1 (0x0)
        Serial Number: 3 (0x3)
        Signature Algorithm: sha256WithRSAEncryption
        Issuer: C=CH, ST=VD, L=Lausanne, O=IMovies, OU=CA, CN=imovies/emailAddress=admin@imovies.ch
        Validity
            Not Before: Nov 13 16:50:36 2021 GMT
            Not After : Nov 13 16:50:36 2022 GMT
        Subject: C=CH, ST=VD, O=IMovies, OU=Server, CN=server.imovies
        Subject Public Key Info:
            Public Key Algorithm: rsaEncryption
                RSA Public-Key: (2048 bit)
                Modulus:
                    00:c5:4f:35:83:05:22:ff:b7:57:f9:99:71:64:3d:
                    a2:c4:56:5e:db:77:cf:c2:8d:90:75:e7:5b:ab:51:
                    5e:e9:b0:fb:a8:5d:4a:d9:64:fc:95:8a:6f:b0:64:
                    a1:56:29:d3:af:3a:b7:0d:90:4e:14:62:f7:c6:e4:
                    84:8e:eb:b7:3f:73:53:e1:ac:b4:0a:da:66:c8:fd:
                    23:63:a3:de:89:96:e6:a0:b2:f3:13:1b:46:7a:0e:
                    36:26:b8:96:ab:ac:0f:c9:93:71:f3:b5:3b:e7:41:
                    50:2e:4f:46:f9:76:d6:f8:7b:94:22:5f:12:04:0f:
                    62:e1:1e:1e:e0:4e:a4:7f:f3:a7:a6:5a:f8:95:3d:
                    cb:f1:00:f9:ef:16:c0:88:a5:2e:fd:88:c5:ce:02:
                    d8:be:22:f5:19:f6:44:25:0b:32:6c:63:59:85:34:
                    cd:35:21:8b:04:01:10:b3:87:32:7b:dc:be:be:f1:
                    7b:51:92:c5:9e:89:7b:53:a4:fa:7d:26:1e:7b:e1:
                    f1:70:5f:ad:3e:1a:d7:c6:38:84:7b:ff:60:02:eb:
                    f3:91:fd:2f:4a:05:60:69:bf:df:04:88:8e:af:45:
                    0c:49:a9:eb:31:04:3e:f1:7e:f9:f7:de:8f:cb:45:
                    13:50:73:41:64:db:3e:e3:84:b0:82:69:18:1a:3a:
                    f9:9f
                Exponent: 65537 (0x10001)
    Signature Algorithm: sha256WithRSAEncryption
         02:01:12:cb:7c:f0:ab:74:03:d4:48:3c:5e:31:2c:f2:28:ac:
         90:34:8c:f7:6d:97:50:8d:3e:5b:78:80:7e:f3:cc:81:a9:61:
         fc:3f:77:c4:c0:59:e5:39:ec:e6:0d:25:90:5b:c8:50:8c:34:
         54:03:80:27:99:04:c3:b2:eb:45:18:2b:74:82:6e:66:fd:f6:
         87:db:be:8d:4b:c7:5b:b8:e1:97:5e:65:01:14:7f:bf:08:b5:
         9b:bb:f6:44:4d:72:9c:4c:b8:34:9b:48:fe:06:54:72:04:64:
         e5:0b:c2:13:aa:f6:1d:50:c1:46:e5:9f:ed:d6:34:45:40:54:
         de:53:0b:19:11:5d:66:e3:27:e5:3a:f6:f0:5b:87:cb:17:ab:
         c5:f8:b3:bf:77:c8:5b:e6:3b:67:d9:47:49:7e:06:4a:d2:1e:
         8d:8b:ab:69:c7:03:53:13:52:86:0e:85:9e:6c:9d:77:85:e8:
         cd:f3:a1:e5:66:2e:31:14:dc:a9:f2:3c:43:7e:96:23:5a:2c:
         0e:a5:72:c4:32:87:15:54:c9:db:d4:70:99:5c:37:bf:d6:98:
         d2:e0:5d:7e:c3:e0:ff:80:90:da:8b:8c:1f:a6:2e:66:c3:a0:
         a6:0e:3f:47:57:74:f5:1d:af:6d:5e:64:7c:b7:6b:92:12:b8:
         ca:d3:21:07:17
-----BEGIN CERTIFICATE-----
MIIDSjCCAjECAQMwDQYJKoZIhvcNAQELBQAwfzELMAkGA1UEBhMCQ0gxCzAJBgNV
BAgTAlZEMREwDwYDVQQHEwhMYXVzYW5uZTEQMA4GA1UEChMHSU1vdmllczELMAkG
A1UECxMCQ0ExEDAOBgNVBAMTB2ltb3ZpZXMxHzAdBgkqhkiG9w0BCQEWEGFkbWlu
QGltb3ZpZXMuY2gwHhcNMjExMTEzMTY1MDM2WhcNMjIxMTEzMTY1MDM2WjBWMQsw
CQYDVQQGEwJDSDELMAkGA1UECAwCVkQxEDAOBgNVBAoMB0lNb3ZpZXMxDzANBgNV
BAsMBlNlcnZlcjEXMBUGA1UEAwwOc2VydmVyLmltb3ZpZXMwggEiMA0GCSqGSIb3
DQEBAQUAA4IBDwAwggEKAoIBAQDFTzWDBSL/t1f5mXFkPaLEVl7bd8/CjZB151ur
UV7psPuoXUrZZPyVim+wZKFWKdOvOrcNkE4UYvfG5ISO67c/c1PhrLQK2mbI/SNj
o96JluagsvMTG0Z6DjYmuJarrA/Jk3HztTvnQVAuT0b5dtb4e5QiXxIED2LhHh7g
TqR/86emWviVPcvxAPnvFsCIpS79iMXOAti+IvUZ9kQlCzJsY1mFNM01IYsEARCz
hzJ73L6+8XtRksWeiXtTpPp9Jh574fFwX60+GtfGOIR7/2AC6/OR/S9KBWBpv98E
iI6vRQxJqesxBD7xfvn33o/LRRNQc0Fk2z7jhLCCaRgaOvmfAgMBAAEwDQYJKoZI
hvcNAQELBQADggECAAIBEst88Kt0A9RIPF4xLPIorJA0jPdtl1CNPlt4gH7zzIGp
Yfw/d8TAWeU57OYNJZBbyFCMNFQDgCeZBMOy60UYK3SCbmb99ofbvo1Lx1u44Zde
ZQEUf78ItZu79kRNcpxMuDSbSP4GVHIEZOULwhOq9h1QwUbln+3WNEVAVN5TCxkR
XWbjJ+U69vBbh8sXq8X4s793yFvmO2fZR0l+BkrSHo2Lq2nHA1MTUoYOhZ5snXeF
6M3zoeVmLjEU3KnyPEN+liNaLA6lcsQyhxVUydvUcJlcN7/WmNLgXX7D4P+AkNqL
jB+mLmbDoKYOP0dXdPUdr21eZHy3a5ISuMrTIQcX
-----END CERTIFICATE-----
