Certificate:
    Data:
        Version: 1 (0x0)
        Serial Number: 4 (0x4)
        Signature Algorithm: sha256WithRSAEncryption
        Issuer: C=CH, ST=VD, L=Lausanne, O=IMovies, OU=CA, CN=imovies/emailAddress=admin@imovies.ch
        Validity
            Not Before: Nov  5 15:48:09 2021 GMT
            Not After : Nov  5 15:48:09 2022 GMT
        Subject: C=CH, ST=VD, O=IMovies, OU=DB, CN=db.imovies.
        Subject Public Key Info:
            Public Key Algorithm: rsaEncryption
                RSA Public-Key: (1024 bit)
                Modulus:
                    00:ca:4c:3c:be:a6:f2:75:d3:20:12:94:0b:1e:2f:
                    cb:cd:c7:8b:f5:b9:f8:42:e7:00:33:74:7a:d2:8b:
                    a6:7f:c4:c7:a3:ac:05:d2:ce:03:6b:2f:85:cd:26:
                    00:8b:af:94:b7:a5:ab:d3:08:22:df:be:86:52:67:
                    59:77:0e:b5:16:e2:ba:ad:b0:f1:5c:fc:37:76:20:
                    6c:d8:3a:c9:7b:be:95:93:5f:76:81:1b:8f:74:dd:
                    67:81:bb:2c:93:e4:0e:89:b6:3d:1c:1f:48:a4:a8:
                    db:e9:c2:4d:86:f9:62:82:86:b6:3e:ea:4b:d2:3a:
                    69:41:0f:3d:5a:c7:ae:b1:81
                Exponent: 65537 (0x10001)
    Signature Algorithm: sha256WithRSAEncryption
         61:c5:5e:b2:ad:15:f1:87:d5:aa:29:62:83:96:e0:de:2f:4b:
         50:2c:48:12:2e:b6:fd:12:ff:c4:a2:c0:6a:35:5e:6c:1d:de:
         02:00:80:c3:8d:fc:e8:86:8c:90:03:25:d4:2d:4e:46:b0:a7:
         f0:4c:b2:1d:52:01:af:88:3e:63:5a:b2:a5:39:48:75:d4:0b:
         bc:b0:f5:6d:c8:19:6c:b3:b0:26:0b:5b:2e:d9:59:b0:2b:5a:
         a0:66:d0:83:80:b3:b4:ad:54:7b:cc:61:6e:1c:a2:80:b5:90:
         ea:f2:87:8c:59:40:f4:4a:24:de:34:a8:84:f8:8c:1d:4d:19:
         c1:3c
-----BEGIN CERTIFICATE-----
MIICPTCCAaYCAQQwDQYJKoZIhvcNAQELBQAwfzELMAkGA1UEBhMCQ0gxCzAJBgNV
BAgTAlZEMREwDwYDVQQHEwhMYXVzYW5uZTEQMA4GA1UEChMHSU1vdmllczELMAkG
A1UECxMCQ0ExEDAOBgNVBAMTB2ltb3ZpZXMxHzAdBgkqhkiG9w0BCQEWEGFkbWlu
QGltb3ZpZXMuY2gwHhcNMjExMTA1MTU0ODA5WhcNMjIxMTA1MTU0ODA5WjBPMQsw
CQYDVQQGEwJDSDELMAkGA1UECAwCVkQxEDAOBgNVBAoMB0lNb3ZpZXMxCzAJBgNV
BAsMAkRCMRQwEgYDVQQDDAtkYi5pbW92aWVzLjCBnzANBgkqhkiG9w0BAQEFAAOB
jQAwgYkCgYEAykw8vqbyddMgEpQLHi/LzceL9bn4QucAM3R60oumf8THo6wF0s4D
ay+FzSYAi6+Ut6Wr0wgi376GUmdZdw61FuK6rbDxXPw3diBs2DrJe76Vk192gRuP
dN1ngbssk+QOibY9HB9IpKjb6cJNhvligoa2PupL0jppQQ89WseusYECAwEAATAN
BgkqhkiG9w0BAQsFAAOBgQBhxV6yrRXxh9WqKWKDluDeL0tQLEgSLrb9Ev/EosBq
NV5sHd4CAIDDjfzohoyQAyXULU5GsKfwTLIdUgGviD5jWrKlOUh11Au8sPVtyBls
s7AmC1su2VmwK1qgZtCDgLO0rVR7zGFuHKKAtZDq8oeMWUD0SiTeNKiE+IwdTRnB
PA==
-----END CERTIFICATE-----
