Certificate:
    Data:
        Version: 1 (0x0)
        Serial Number: 4 (0x4)
        Signature Algorithm: sha256WithRSAEncryption
        Issuer: C=CH, ST=VD, L=Lausanne, O=IMovies, OU=CA, CN=imovies/emailAddress=admin@imovies.ch
        Validity
            Not Before: Nov 13 16:50:37 2021 GMT
            Not After : Nov 13 16:50:37 2022 GMT
        Subject: C=CH, ST=VD, O=IMovies, OU=DB, CN=db.imovies.
        Subject Public Key Info:
            Public Key Algorithm: rsaEncryption
                RSA Public-Key: (2048 bit)
                Modulus:
                    00:b7:23:43:ca:f3:bf:c7:56:e6:02:cf:8e:a5:05:
                    42:10:b5:ab:9d:76:fc:1b:66:4a:ae:f1:8c:50:e5:
                    3f:ef:5b:3c:cd:8a:87:a7:87:78:ca:9e:e1:8a:a9:
                    e6:3c:f3:5f:f4:f6:a6:95:1f:f2:39:07:c7:4f:3e:
                    6b:3b:81:49:66:e9:b7:88:66:57:a6:10:a2:56:b1:
                    5b:43:97:7a:60:1e:f3:ce:7f:ea:8c:96:04:77:4c:
                    44:f9:e1:ea:a6:52:72:38:1e:35:f4:85:ae:a4:cc:
                    b8:f6:52:b4:7e:2f:6e:d2:d6:1b:f1:bd:f8:33:13:
                    7a:e5:8a:65:0c:f2:74:19:d0:11:1e:3f:43:5a:b2:
                    cb:a5:c5:c7:c1:65:8f:94:56:71:9d:0c:48:d4:4e:
                    d0:35:ea:22:dd:c9:f6:be:2f:06:bb:27:cd:ea:5c:
                    a9:56:ad:25:a2:6c:d9:f2:3a:9c:fb:fb:02:1a:60:
                    7c:f0:70:ee:0f:d0:0e:11:fa:cb:35:6b:9d:c1:5c:
                    07:87:d6:27:30:50:41:7f:4e:ce:ef:47:28:50:32:
                    e3:c6:43:d9:85:7d:55:6b:be:df:db:55:c5:a3:27:
                    a2:a9:30:cf:23:14:78:bb:d1:90:2a:4c:fe:39:01:
                    e4:97:48:4b:15:e8:91:7d:8d:5d:be:73:b9:cf:78:
                    56:2f
                Exponent: 65537 (0x10001)
    Signature Algorithm: sha256WithRSAEncryption
         01:61:b3:72:c8:20:5f:e0:1f:5a:05:8f:e9:93:8e:0c:b8:1a:
         f5:4a:ed:1e:62:27:f4:7c:c1:be:20:d1:44:7e:b1:e5:d3:66:
         c4:3e:1d:b7:cf:94:ce:57:48:10:25:46:83:75:67:47:f5:da:
         d5:96:49:d2:54:19:78:3d:6b:4f:95:8c:5e:57:ef:dd:8f:73:
         8d:b9:e1:8d:72:4b:6a:e9:4b:9d:21:22:e8:0b:38:7a:a8:32:
         1b:c1:6d:f1:8f:1f:96:54:f3:48:80:ef:2f:47:3e:1a:85:33:
         04:de:4e:ae:81:9e:32:23:4a:88:2e:36:72:ce:5f:fb:87:09:
         45:63:d8:17:05:4d:cb:59:a5:15:cb:3d:cf:94:8e:9b:48:d0:
         cc:f0:c4:73:30:69:80:19:7f:a7:f2:00:fd:6b:d9:65:5b:e7:
         36:11:ae:92:cb:bb:b7:b8:91:6f:76:49:4b:dd:88:3b:c8:59:
         78:ae:50:53:c9:82:97:33:a7:d8:e4:a7:80:09:99:85:75:da:
         57:ca:8d:6b:f2:17:70:b7:e6:e6:d7:0e:d0:89:94:ce:f8:52:
         e1:5d:77:ee:41:10:7e:3e:e0:24:92:1b:dc:90:b5:75:d6:6a:
         1f:8c:92:3f:ef:cb:55:d9:a1:06:86:c5:2c:fb:02:24:e7:ec:
         72:75:23:97:18
-----BEGIN CERTIFICATE-----
MIIDQzCCAioCAQQwDQYJKoZIhvcNAQELBQAwfzELMAkGA1UEBhMCQ0gxCzAJBgNV
BAgTAlZEMREwDwYDVQQHEwhMYXVzYW5uZTEQMA4GA1UEChMHSU1vdmllczELMAkG
A1UECxMCQ0ExEDAOBgNVBAMTB2ltb3ZpZXMxHzAdBgkqhkiG9w0BCQEWEGFkbWlu
QGltb3ZpZXMuY2gwHhcNMjExMTEzMTY1MDM3WhcNMjIxMTEzMTY1MDM3WjBPMQsw
CQYDVQQGEwJDSDELMAkGA1UECAwCVkQxEDAOBgNVBAoMB0lNb3ZpZXMxCzAJBgNV
BAsMAkRCMRQwEgYDVQQDDAtkYi5pbW92aWVzLjCCASIwDQYJKoZIhvcNAQEBBQAD
ggEPADCCAQoCggEBALcjQ8rzv8dW5gLPjqUFQhC1q512/BtmSq7xjFDlP+9bPM2K
h6eHeMqe4Yqp5jzzX/T2ppUf8jkHx08+azuBSWbpt4hmV6YQolaxW0OXemAe885/
6oyWBHdMRPnh6qZScjgeNfSFrqTMuPZStH4vbtLWG/G9+DMTeuWKZQzydBnQER4/
Q1qyy6XFx8Flj5RWcZ0MSNRO0DXqIt3J9r4vBrsnzepcqVatJaJs2fI6nPv7Ahpg
fPBw7g/QDhH6yzVrncFcB4fWJzBQQX9Ozu9HKFAy48ZD2YV9VWu+39tVxaMnoqkw
zyMUeLvRkCpM/jkB5JdISxXokX2NXb5zuc94Vi8CAwEAATANBgkqhkiG9w0BAQsF
AAOCAQIAAWGzcsggX+AfWgWP6ZOODLga9UrtHmIn9HzBviDRRH6x5dNmxD4dt8+U
zldIECVGg3VnR/Xa1ZZJ0lQZeD1rT5WMXlfv3Y9zjbnhjXJLaulLnSEi6As4eqgy
G8Ft8Y8fllTzSIDvL0c+GoUzBN5OroGeMiNKiC42cs5f+4cJRWPYFwVNy1mlFcs9
z5SOm0jQzPDEczBpgBl/p/IA/WvZZVvnNhGuksu7t7iRb3ZJS92IO8hZeK5QU8mC
lzOn2OSngAmZhXXaV8qNa/IXcLfm5tcO0ImUzvhS4V137kEQfj7gJJIb3JC1ddZq
H4ySP+/LVdmhBobFLPsCJOfscnUjlxg=
-----END CERTIFICATE-----
