Certificate:
    Data:
        Version: 1 (0x0)
        Serial Number: 1 (0x1)
        Signature Algorithm: sha256WithRSAEncryption
        Issuer: C=CH, ST=VD, O=IMovies, OU=Intermediate, CN=caserver.imovies
        Validity
            Not Before: Nov 14 11:33:51 2021 GMT
            Not After : Nov 14 11:33:51 2022 GMT
        Subject: C=AU, ST=Some-State, O=Internet Widgits Pty Ltd
        Subject Public Key Info:
            Public Key Algorithm: rsaEncryption
                RSA Public-Key: (2048 bit)
                Modulus:
                    00:e6:f4:96:38:71:75:45:15:b0:3c:33:9c:b2:24:
                    3a:9a:7c:bf:13:58:b2:ab:2a:d2:98:f8:80:a1:de:
                    98:25:fe:09:67:ba:cc:29:3c:5a:cb:aa:e9:5c:ba:
                    dc:d0:6c:89:32:e1:7b:14:26:36:ec:7f:1f:4c:dd:
                    58:58:87:fa:13:f9:c5:69:02:80:44:7d:78:91:04:
                    01:67:00:d6:1f:94:83:9b:34:bf:c4:18:46:48:3b:
                    94:9d:cb:88:a3:4a:84:3b:4b:9b:49:99:96:9b:e9:
                    52:43:d4:2d:62:67:3b:e8:1e:8f:26:48:63:fb:04:
                    48:5b:2c:e0:6c:c9:48:42:24:95:2d:a0:5c:b3:56:
                    c8:37:28:be:93:50:6b:cc:77:70:26:74:48:f2:a8:
                    5d:2f:03:c9:dd:aa:91:00:17:3b:9b:c7:16:65:3c:
                    eb:89:b4:aa:77:d7:c9:aa:80:93:4d:41:35:85:b2:
                    fa:5f:a2:75:97:ea:7f:41:28:e8:e9:fe:9d:c1:b7:
                    3d:3b:fb:f1:a1:6f:f6:34:3e:0e:be:61:2b:40:c8:
                    6f:5c:4c:62:46:d4:4e:16:e0:16:77:a5:0b:a8:6d:
                    77:44:f7:c7:82:9d:e2:48:af:4c:72:72:c3:a6:89:
                    4b:24:ae:95:36:27:40:81:99:dd:24:9d:51:52:6c:
                    00:c7
                Exponent: 65537 (0x10001)
    Signature Algorithm: sha256WithRSAEncryption
         20:e0:3d:93:6c:57:df:29:08:58:a9:12:2a:3f:86:01:0a:46:
         83:1a:9c:36:36:c2:4d:40:51:30:4e:b7:9b:6d:a4:6c:83:06:
         15:d4:06:2d:ed:d8:36:ce:f2:29:0e:ec:c0:bc:52:34:87:21:
         94:50:11:11:26:7f:22:d6:d8:07:24:d3:78:34:23:e2:c9:da:
         50:eb:88:00:8e:6b:53:79:8f:86:65:e9:31:e1:ca:25:cc:be:
         b4:2f:eb:fa:49:c3:0c:c7:a5:0f:71:11:11:88:b7:0d:d4:47:
         01:e9:db:bc:88:98:36:50:58:55:a3:dc:e8:7f:b9:21:63:da:
         b7:db:68:29:35:61:5d:7d:12:80:40:7a:b6:5e:02:c1:eb:ca:
         16:e1:15:05:be:a0:c4:b3:ad:b0:e8:d8:91:6d:6c:0d:37:ee:
         45:fb:23:02:c1:91:31:9e:3f:9a:55:f1:b8:9b:34:80:e6:d0:
         e7:3e:bf:7d:1e:9a:ee:5e:68:59:e9:07:56:16:8b:39:b2:98:
         25:a3:d9:2f:7a:21:3f:14:f7:0f:09:5b:48:cd:4f:28:89:6c:
         c9:14:cb:43:4f:e3:27:0b:17:f5:c4:bc:50:36:8f:74:9a:9d:
         50:07:58:0e:91:76:08:5a:3b:da:ef:ea:9c:49:f7:55:6e:6c:
         03:1c:0e:f8
-----BEGIN CERTIFICATE-----
MIIDFzCCAf8CAQEwDQYJKoZIhvcNAQELBQAwXjELMAkGA1UEBhMCQ0gxCzAJBgNV
BAgTAlZEMRAwDgYDVQQKEwdJTW92aWVzMRUwEwYDVQQLEwxJbnRlcm1lZGlhdGUx
GTAXBgNVBAMTEGNhc2VydmVyLmltb3ZpZXMwHhcNMjExMTE0MTEzMzUxWhcNMjIx
MTE0MTEzMzUxWjBFMQswCQYDVQQGEwJBVTETMBEGA1UECAwKU29tZS1TdGF0ZTEh
MB8GA1UECgwYSW50ZXJuZXQgV2lkZ2l0cyBQdHkgTHRkMIIBIjANBgkqhkiG9w0B
AQEFAAOCAQ8AMIIBCgKCAQEA5vSWOHF1RRWwPDOcsiQ6mny/E1iyqyrSmPiAod6Y
Jf4JZ7rMKTxay6rpXLrc0GyJMuF7FCY27H8fTN1YWIf6E/nFaQKARH14kQQBZwDW
H5SDmzS/xBhGSDuUncuIo0qEO0ubSZmWm+lSQ9QtYmc76B6PJkhj+wRIWyzgbMlI
QiSVLaBcs1bINyi+k1BrzHdwJnRI8qhdLwPJ3aqRABc7m8cWZTzribSqd9fJqoCT
TUE1hbL6X6J1l+p/QSjo6f6dwbc9O/vxoW/2ND4OvmErQMhvXExiRtROFuAWd6UL
qG13RPfHgp3iSK9McnLDpolLJK6VNidAgZndJJ1RUmwAxwIDAQABMA0GCSqGSIb3
DQEBCwUAA4IBAQAg4D2TbFffKQhYqRIqP4YBCkaDGpw2NsJNQFEwTrebbaRsgwYV
1AYt7dg2zvIpDuzAvFI0hyGUUBERJn8i1tgHJNN4NCPiydpQ64gAjmtTeY+GZekx
4colzL60L+v6ScMMx6UPcRERiLcN1EcB6du8iJg2UFhVo9zof7khY9q322gpNWFd
fRKAQHq2XgLB68oW4RUFvqDEs62w6NiRbWwNN+5F+yMCwZExnj+aVfG4mzSA5tDn
Pr99HpruXmhZ6QdWFos5spglo9kveiE/FPcPCVtIzU8oiWzJFMtDT+MnCxf1xLxQ
No90mp1QB1gOkXYIWjva7+qcSfdVbmwDHA74
-----END CERTIFICATE-----
