Certificate:
    Data:
        Version: 1 (0x0)
        Serial Number: 5 (0x5)
        Signature Algorithm: md5WithRSAEncryption
        Issuer: C=CH, ST=VD, L=Lausanne, O=IMovies, OU=CA, CN=imovies/emailAddress=admin@imovies.ch
        Validity
            Not Before: Nov  5 11:05:13 2021 GMT
            Not After : Nov  5 11:05:13 2022 GMT
        Subject: C=CH, ST=VD, O=IMovies, OU=Backup, CN=backup.imovies
        Subject Public Key Info:
            Public Key Algorithm: rsaEncryption
                RSA Public-Key: (1024 bit)
                Modulus:
                    00:c6:fa:88:e4:0d:cb:99:20:7a:20:a2:4c:a7:ec:
                    96:9b:11:f1:13:5e:68:20:79:df:c1:b8:7a:e7:ea:
                    5c:da:c8:e1:aa:b5:f8:52:44:a7:3c:8a:1b:8b:6c:
                    aa:d4:5e:13:5f:86:96:c5:17:f2:0b:b6:01:45:8c:
                    72:1d:31:02:7f:7d:cf:e7:af:6f:c1:d8:54:85:a2:
                    e2:92:64:1f:d0:84:19:48:fd:e2:c5:63:76:82:3e:
                    65:24:43:b9:cd:69:98:b0:7c:b6:ed:07:89:6a:9e:
                    2c:18:93:82:ac:6e:0d:37:9a:ae:fc:cc:27:b8:d2:
                    4b:96:85:4d:fb:e6:e0:43:e5
                Exponent: 65537 (0x10001)
    Signature Algorithm: md5WithRSAEncryption
         17:dd:20:2a:bd:c5:2a:41:39:a6:27:03:ba:8c:0a:72:7f:21:
         fc:99:67:0e:40:8c:3b:5d:07:65:f3:df:a9:5c:dc:c9:dd:2e:
         e9:6c:d1:a5:9e:2e:28:09:59:5d:82:4a:10:30:6c:2a:b8:1a:
         8b:19:8c:f1:17:68:7a:ae:46:83:8c:ce:43:f3:2a:5b:bf:ac:
         fe:cd:38:ef:2d:ed:0d:0e:33:c9:8d:20:58:c3:ba:37:8e:52:
         e7:f4:d0:53:46:c9:2a:e5:35:52:8b:b0:44:e1:ab:53:50:d6:
         c0:6b:7f:b8:90:58:fb:bd:b7:c1:20:77:43:67:bc:b9:80:e3:
         b6:81
-----BEGIN CERTIFICATE-----
MIICRDCCAa0CAQUwDQYJKoZIhvcNAQEEBQAwfzELMAkGA1UEBhMCQ0gxCzAJBgNV
BAgTAlZEMREwDwYDVQQHEwhMYXVzYW5uZTEQMA4GA1UEChMHSU1vdmllczELMAkG
A1UECxMCQ0ExEDAOBgNVBAMTB2ltb3ZpZXMxHzAdBgkqhkiG9w0BCQEWEGFkbWlu
QGltb3ZpZXMuY2gwHhcNMjExMTA1MTEwNTEzWhcNMjIxMTA1MTEwNTEzWjBWMQsw
CQYDVQQGEwJDSDELMAkGA1UECAwCVkQxEDAOBgNVBAoMB0lNb3ZpZXMxDzANBgNV
BAsMBkJhY2t1cDEXMBUGA1UEAwwOYmFja3VwLmltb3ZpZXMwgZ8wDQYJKoZIhvcN
AQEBBQADgY0AMIGJAoGBAMb6iOQNy5kgeiCiTKfslpsR8RNeaCB538G4eufqXNrI
4aq1+FJEpzyKG4tsqtReE1+GlsUX8gu2AUWMch0xAn99z+evb8HYVIWi4pJkH9CE
GUj94sVjdoI+ZSRDuc1pmLB8tu0HiWqeLBiTgqxuDTearvzMJ7jSS5aFTfvm4EPl
AgMBAAEwDQYJKoZIhvcNAQEEBQADgYEAF90gKr3FKkE5picDuowKcn8h/JlnDkCM
O10HZfPfqVzcyd0u6WzRpZ4uKAlZXYJKEDBsKrgaixmM8Rdoeq5Gg4zOQ/MqW7+s
/s047y3tDQ4zyY0gWMO6N45S5/TQU0bJKuU1UouwROGrU1DWwGt/uJBY+723wSB3
Q2e8uYDjtoE=
-----END CERTIFICATE-----
